	.cpu cortex-m4
	.arch armv7e-m
	.fpu fpv4-sp-d16
	.eabi_attribute 27, 1
	.eabi_attribute 28, 1
	.eabi_attribute 20, 1
	.eabi_attribute 21, 1
	.eabi_attribute 23, 3
	.eabi_attribute 24, 1
	.eabi_attribute 25, 1
	.eabi_attribute 26, 1
	.eabi_attribute 30, 1
	.eabi_attribute 34, 1
	.eabi_attribute 18, 4
	.file	"m3.c"
	.text
.Ltext0:
	.cfi_sections	.debug_frame
	.file 1 "src/m3.c"
	.section	.rodata.advancePointer.str1.4,"aMS",%progbits,1
	.align	2
.LC0:
	.ascii	"myBuff\000"
	.align	2
.LC1:
	.ascii	"src/circbuffer.h\000"
	.section	.text.advancePointer,"ax",%progbits
	.align	1
	.syntax unified
	.thumb
	.thumb_func
	.type	advancePointer, %function
advancePointer:
.LVL0:
.LFB8:
	.file 2 "src/circbuffer.h"
	.loc 2 61 47 view -0
	.cfi_startproc
	@ args = 0, pretend = 0, frame = 0
	@ frame_needed = 0, uses_anonymous_args = 0
	.loc 2 61 47 is_stmt 0 view .LVU1
	push	{r3, lr}
.LCFI0:
	.cfi_def_cfa_offset 8
	.cfi_offset 3, -8
	.cfi_offset 14, -4
	.loc 2 62 4 is_stmt 1 view .LVU2
	.loc 2 62 16 is_stmt 0 view .LVU3
	cbz	r0, .L6
	mov	r3, r0
	.loc 2 64 5 is_stmt 1 view .LVU4
	.loc 2 64 14 is_stmt 0 view .LVU5
	ldrb	r2, [r0, #6]	@ zero_extendqisi2
	.loc 2 64 7 view .LVU6
	cbz	r2, .L3
	.loc 2 65 9 is_stmt 1 view .LVU7
	.loc 2 65 21 is_stmt 0 view .LVU8
	ldrb	r2, [r0, #4]	@ zero_extendqisi2
	.loc 2 65 12 view .LVU9
	adds	r2, r2, #1
	uxtb	r2, r2
	.loc 2 65 11 view .LVU10
	strb	r2, [r0, #4]
	.loc 2 65 43 view .LVU11
	ldrb	r1, [r0, #5]	@ zero_extendqisi2
	.loc 2 65 11 view .LVU12
	cmp	r2, r1
	beq	.L7
.L3:
	.loc 2 70 5 is_stmt 1 view .LVU13
	.loc 2 70 17 is_stmt 0 view .LVU14
	ldrb	r2, [r3, #4]	@ zero_extendqisi2
	.loc 2 70 8 view .LVU15
	adds	r2, r2, #1
	uxtb	r2, r2
	.loc 2 70 7 view .LVU16
	strb	r2, [r3, #4]
	.loc 2 70 39 view .LVU17
	ldrb	r1, [r3, #7]	@ zero_extendqisi2
	.loc 2 70 7 view .LVU18
	cmp	r2, r1
	beq	.L8
.L4:
	.loc 2 74 5 is_stmt 1 view .LVU19
	.loc 2 74 29 is_stmt 0 view .LVU20
	ldrb	r2, [r3, #4]	@ zero_extendqisi2
	.loc 2 74 50 view .LVU21
	ldrb	r1, [r3, #5]	@ zero_extendqisi2
	.loc 2 74 41 view .LVU22
	cmp	r2, r1
	ite	ne
	movne	r2, #0
	moveq	r2, #1
	.loc 2 74 20 view .LVU23
	strb	r2, [r3, #6]
	.loc 2 75 1 view .LVU24
	pop	{r3, pc}
.L6:
	.loc 2 62 18 discriminator 1 view .LVU25
	ldr	r3, .L9
	ldr	r2, .L9+4
	movs	r1, #62
	ldr	r0, .L9+8
.LVL1:
	.loc 2 62 18 discriminator 1 view .LVU26
	bl	__assert_func
.LVL2:
.L7:
	.loc 2 66 13 is_stmt 1 view .LVU27
	.loc 2 66 31 is_stmt 0 view .LVU28
	movs	r2, #0
	strb	r2, [r0, #5]
	b	.L3
.L8:
	.loc 2 71 9 is_stmt 1 view .LVU29
	.loc 2 71 27 is_stmt 0 view .LVU30
	movs	r2, #0
	strb	r2, [r3, #4]
	b	.L4
.L10:
	.align	2
.L9:
	.word	.LC0
	.word	__func__.8
	.word	.LC1
	.cfi_endproc
.LFE8:
	.size	advancePointer, .-advancePointer
	.section	.text.backPointer,"ax",%progbits
	.align	1
	.syntax unified
	.thumb
	.thumb_func
	.type	backPointer, %function
backPointer:
.LVL3:
.LFB9:
	.loc 2 77 44 is_stmt 1 view -0
	.cfi_startproc
	@ args = 0, pretend = 0, frame = 0
	@ frame_needed = 0, uses_anonymous_args = 0
	.loc 2 77 44 is_stmt 0 view .LVU32
	push	{r3, lr}
.LCFI1:
	.cfi_def_cfa_offset 8
	.cfi_offset 3, -8
	.cfi_offset 14, -4
	.loc 2 78 4 is_stmt 1 view .LVU33
	.loc 2 78 16 is_stmt 0 view .LVU34
	cbz	r0, .L15
	.loc 2 80 5 is_stmt 1 view .LVU35
	.loc 2 80 20 is_stmt 0 view .LVU36
	movs	r3, #0
	strb	r3, [r0, #6]
	.loc 2 82 5 is_stmt 1 view .LVU37
	.loc 2 82 17 is_stmt 0 view .LVU38
	ldrb	r3, [r0, #5]	@ zero_extendqisi2
	.loc 2 82 8 view .LVU39
	adds	r3, r3, #1
	uxtb	r3, r3
	.loc 2 82 7 view .LVU40
	strb	r3, [r0, #5]
	.loc 2 82 39 view .LVU41
	ldrb	r1, [r0, #7]	@ zero_extendqisi2
	.loc 2 82 7 view .LVU42
	cmp	r3, r1
	beq	.L16
.L11:
	.loc 2 85 1 view .LVU43
	pop	{r3, pc}
.L15:
	.loc 2 78 18 discriminator 1 view .LVU44
	ldr	r3, .L17
	ldr	r2, .L17+4
	movs	r1, #78
	ldr	r0, .L17+8
.LVL4:
	.loc 2 78 18 discriminator 1 view .LVU45
	bl	__assert_func
.LVL5:
.L16:
	.loc 2 83 9 is_stmt 1 view .LVU46
	.loc 2 83 27 is_stmt 0 view .LVU47
	movs	r3, #0
	strb	r3, [r0, #5]
	.loc 2 85 1 view .LVU48
	b	.L11
.L18:
	.align	2
.L17:
	.word	.LC0
	.word	__func__.6
	.word	.LC1
	.cfi_endproc
.LFE9:
	.size	backPointer, .-backPointer
	.section	.text.clock_enable,"ax",%progbits
	.align	1
	.syntax unified
	.thumb
	.thumb_func
	.type	clock_enable, %function
clock_enable:
.LFB13:
	.file 3 "src/embsysS20.h"
	.loc 3 65 31 is_stmt 1 view -0
	.cfi_startproc
	@ args = 0, pretend = 0, frame = 0
	@ frame_needed = 0, uses_anonymous_args = 0
	push	{r4, lr}
.LCFI2:
	.cfi_def_cfa_offset 8
	.cfi_offset 4, -8
	.cfi_offset 14, -4
	sub	sp, sp, #8
.LCFI3:
	.cfi_def_cfa_offset 16
	.loc 3 67 5 view .LVU50
	movs	r0, #2
	bl	rcc_osc_on
.LVL6:
	.loc 3 70 2 view .LVU51
	movs	r4, #0
	str	r4, [sp, #4]
	str	r4, [sp]
	mov	r3, r4
	movs	r2, #40
	movs	r1, #4
	movs	r0, #2
	bl	rcc_set_main_pll
.LVL7:
	.loc 3 71 2 view .LVU52
	mov	r0, r4
	bl	rcc_osc_on
.LVL8:
	.loc 3 72 4 view .LVU53
	mov	r0, #2816
	bl	rcc_periph_clock_enable
.LVL9:
	.loc 3 73 4 view .LVU54
	mov	r0, #2432
	bl	rcc_periph_clock_enable
.LVL10:
	.loc 3 74 4 view .LVU55
	movw	r0, #2434
	bl	rcc_periph_clock_enable
.LVL11:
	.loc 3 75 2 view .LVU56
	movw	r0, #2833
	bl	rcc_periph_clock_enable
.LVL12:
	.loc 3 76 1 is_stmt 0 view .LVU57
	add	sp, sp, #8
.LCFI4:
	.cfi_def_cfa_offset 8
	@ sp needed
	pop	{r4, pc}
	.cfi_endproc
.LFE13:
	.size	clock_enable, .-clock_enable
	.section	.text.usart_setup,"ax",%progbits
	.align	1
	.syntax unified
	.thumb
	.thumb_func
	.type	usart_setup, %function
usart_setup:
.LFB14:
	.loc 3 79 1 is_stmt 1 view -0
	.cfi_startproc
	@ args = 0, pretend = 0, frame = 0
	@ frame_needed = 0, uses_anonymous_args = 0
	push	{r4, lr}
.LCFI5:
	.cfi_def_cfa_offset 8
	.cfi_offset 4, -8
	.cfi_offset 14, -4
	.loc 3 80 4 view .LVU59
	movs	r0, #38
	bl	nvic_enable_irq
.LVL13:
	.loc 3 84 2 view .LVU60
	movs	r3, #4
	movs	r2, #0
	movs	r1, #2
	mov	r0, #1207959552
	bl	gpio_mode_setup
.LVL14:
	.loc 3 86 4 view .LVU61
	movs	r3, #8
	movs	r2, #0
	movs	r1, #2
	mov	r0, #1207959552
	bl	gpio_mode_setup
.LVL15:
	.loc 3 90 2 view .LVU62
	movs	r2, #4
	movs	r1, #7
	mov	r0, #1207959552
	bl	gpio_set_af
.LVL16:
	.loc 3 91 4 view .LVU63
	movs	r2, #8
	movs	r1, #7
	mov	r0, #1207959552
	bl	gpio_set_af
.LVL17:
	.loc 3 95 2 view .LVU64
	ldr	r4, .L23
	mov	r1, #57600
	mov	r0, r4
	bl	usart_set_baudrate
.LVL18:
	.loc 3 96 2 view .LVU65
	movs	r1, #9
	mov	r0, r4
	bl	usart_set_databits
.LVL19:
	.loc 3 97 2 view .LVU66
	movs	r1, #0
	mov	r0, r4
	bl	usart_set_stopbits
.LVL20:
	.loc 3 98 2 view .LVU67
	movs	r1, #12
	mov	r0, r4
	bl	usart_set_mode
.LVL21:
	.loc 3 99 2 view .LVU68
	movs	r1, #0
	mov	r0, r4
	bl	usart_set_parity
.LVL22:
	.loc 3 100 2 view .LVU69
	movs	r1, #0
	mov	r0, r4
	bl	usart_set_flow_control
.LVL23:
	.loc 3 102 4 view .LVU70
	mov	r0, r4
	bl	usart_enable_rx_interrupt
.LVL24:
	.loc 3 104 4 view .LVU71
	mov	r0, r4
	bl	usart_enable
.LVL25:
	.loc 3 106 1 is_stmt 0 view .LVU72
	pop	{r4, pc}
.L24:
	.align	2
.L23:
	.word	1073759232
	.cfi_endproc
.LFE14:
	.size	usart_setup, .-usart_setup
	.section	.text.timer_setup,"ax",%progbits
	.align	1
	.syntax unified
	.thumb
	.thumb_func
	.type	timer_setup, %function
timer_setup:
.LFB16:
	.loc 3 130 1 is_stmt 1 view -0
	.cfi_startproc
	@ args = 0, pretend = 0, frame = 0
	@ frame_needed = 0, uses_anonymous_args = 0
	push	{r3, lr}
.LCFI6:
	.cfi_def_cfa_offset 8
	.cfi_offset 3, -8
	.cfi_offset 14, -4
	.loc 3 131 4 view .LVU74
	mov	r0, #2816
	bl	rcc_periph_clock_enable
.LVL26:
	.loc 3 132 4 view .LVU75
	mov	r0, #1792
	bl	rcc_periph_reset_pulse
.LVL27:
	.loc 3 137 4 view .LVU76
	mov	r1, #2000
	mov	r0, #1073741824
	bl	timer_set_prescaler
.LVL28:
	.loc 3 139 4 view .LVU77
	mov	r1, #1000
	mov	r0, #1073741824
	bl	timer_set_period
.LVL29:
	.loc 3 140 4 view .LVU78
	mov	r0, #1073741824
	bl	timer_enable_counter
.LVL30:
	.loc 3 142 4 view .LVU79
	movs	r1, #2
	mov	r0, #1073741824
	bl	timer_enable_irq
.LVL31:
	.loc 3 143 1 is_stmt 0 view .LVU80
	pop	{r3, pc}
	.cfi_endproc
.LFE16:
	.size	timer_setup, .-timer_setup
	.section	.text.circbuffer_reset,"ax",%progbits
	.align	1
	.global	circbuffer_reset
	.syntax unified
	.thumb
	.thumb_func
	.type	circbuffer_reset, %function
circbuffer_reset:
.LVL32:
.LFB3:
	.loc 2 15 42 is_stmt 1 view -0
	.cfi_startproc
	@ args = 0, pretend = 0, frame = 0
	@ frame_needed = 0, uses_anonymous_args = 0
	.loc 2 15 42 is_stmt 0 view .LVU82
	push	{r3, lr}
.LCFI7:
	.cfi_def_cfa_offset 8
	.cfi_offset 3, -8
	.cfi_offset 14, -4
	.loc 2 16 4 is_stmt 1 view .LVU83
	.loc 2 16 16 is_stmt 0 view .LVU84
	cbz	r0, .L30
	.loc 2 18 5 is_stmt 1 view .LVU85
	.loc 2 18 23 is_stmt 0 view .LVU86
	movs	r2, #0
	strb	r2, [r0, #4]
	.loc 2 19 5 is_stmt 1 view .LVU87
	.loc 2 19 23 is_stmt 0 view .LVU88
	strb	r2, [r0, #5]
	.loc 2 20 5 is_stmt 1 view .LVU89
	.loc 2 20 20 is_stmt 0 view .LVU90
	strb	r2, [r0, #6]
	.loc 2 21 1 view .LVU91
	pop	{r3, pc}
.L30:
	.loc 2 16 18 discriminator 1 view .LVU92
	ldr	r3, .L31
	ldr	r2, .L31+4
	movs	r1, #16
	ldr	r0, .L31+8
.LVL33:
	.loc 2 16 18 discriminator 1 view .LVU93
	bl	__assert_func
.LVL34:
.L32:
	.align	2
.L31:
	.word	.LC0
	.word	__func__.14
	.word	.LC1
	.cfi_endproc
.LFE3:
	.size	circbuffer_reset, .-circbuffer_reset
	.section	.text.bufferIsEmpty,"ax",%progbits
	.align	1
	.global	bufferIsEmpty
	.syntax unified
	.thumb
	.thumb_func
	.type	bufferIsEmpty, %function
bufferIsEmpty:
.LVL35:
.LFB4:
	.loc 2 23 39 is_stmt 1 view -0
	.cfi_startproc
	@ args = 0, pretend = 0, frame = 0
	@ frame_needed = 0, uses_anonymous_args = 0
	.loc 2 23 39 is_stmt 0 view .LVU95
	push	{r3, lr}
.LCFI8:
	.cfi_def_cfa_offset 8
	.cfi_offset 3, -8
	.cfi_offset 14, -4
	.loc 2 24 4 is_stmt 1 view .LVU96
	.loc 2 24 16 is_stmt 0 view .LVU97
	cbz	r0, .L39
	.loc 2 26 5 is_stmt 1 view .LVU98
	.loc 2 26 19 is_stmt 0 view .LVU99
	ldrb	r2, [r0, #6]	@ zero_extendqisi2
	.loc 2 26 28 view .LVU100
	cbnz	r2, .L36
	.loc 2 26 38 discriminator 1 view .LVU101
	ldrb	r2, [r0, #4]	@ zero_extendqisi2
	.loc 2 26 59 discriminator 1 view .LVU102
	ldrb	r3, [r0, #5]	@ zero_extendqisi2
	.loc 2 26 28 discriminator 1 view .LVU103
	cmp	r2, r3
	beq	.L37
	.loc 2 26 28 view .LVU104
	movs	r0, #0
.LVL36:
	.loc 2 26 28 view .LVU105
	b	.L35
.LVL37:
.L39:
	.loc 2 24 18 discriminator 1 view .LVU106
	ldr	r3, .L40
	ldr	r2, .L40+4
	movs	r1, #24
	ldr	r0, .L40+8
.LVL38:
	.loc 2 24 18 discriminator 1 view .LVU107
	bl	__assert_func
.LVL39:
.L36:
	.loc 2 26 28 view .LVU108
	movs	r0, #0
.LVL40:
.L35:
	.loc 2 27 1 discriminator 6 view .LVU109
	pop	{r3, pc}
.LVL41:
.L37:
	.loc 2 26 28 view .LVU110
	movs	r0, #1
.LVL42:
	.loc 2 26 28 view .LVU111
	b	.L35
.L41:
	.align	2
.L40:
	.word	.LC0
	.word	__func__.13
	.word	.LC1
	.cfi_endproc
.LFE4:
	.size	bufferIsEmpty, .-bufferIsEmpty
	.section	.rodata.circbuffer_init.str1.4,"aMS",%progbits,1
	.align	2
.LC2:
	.ascii	"myBuff && buff && size\000"
	.align	2
.LC3:
	.ascii	"bufferIsEmpty(myBuff)\000"
	.section	.text.circbuffer_init,"ax",%progbits
	.align	1
	.global	circbuffer_init
	.syntax unified
	.thumb
	.thumb_func
	.type	circbuffer_init, %function
circbuffer_init:
.LVL43:
.LFB5:
	.loc 2 29 63 is_stmt 1 view -0
	.cfi_startproc
	@ args = 0, pretend = 0, frame = 0
	@ frame_needed = 0, uses_anonymous_args = 0
	.loc 2 29 63 is_stmt 0 view .LVU113
	push	{r4, lr}
.LCFI9:
	.cfi_def_cfa_offset 8
	.cfi_offset 4, -8
	.cfi_offset 14, -4
	.loc 2 30 4 is_stmt 1 view .LVU114
	.loc 2 30 16 is_stmt 0 view .LVU115
	cbz	r0, .L43
	mov	r4, r0
	.loc 2 30 11 discriminator 2 view .LVU116
	cbz	r1, .L43
	.loc 2 30 19 discriminator 4 view .LVU117
	cbz	r2, .L43
	.loc 2 32 5 is_stmt 1 view .LVU118
	.loc 2 32 20 is_stmt 0 view .LVU119
	str	r1, [r0]
	.loc 2 33 5 is_stmt 1 view .LVU120
	.loc 2 33 17 is_stmt 0 view .LVU121
	strb	r2, [r0, #7]
	.loc 2 34 5 is_stmt 1 view .LVU122
	bl	circbuffer_reset
.LVL44:
	.loc 2 36 4 view .LVU123
	.loc 2 36 4 is_stmt 0 view .LVU124
	mov	r0, r4
	bl	bufferIsEmpty
.LVL45:
	.loc 2 36 16 view .LVU125
	cbz	r0, .L47
	.loc 2 37 1 view .LVU126
	pop	{r4, pc}
.LVL46:
.L43:
	.loc 2 30 18 discriminator 5 view .LVU127
	ldr	r3, .L48
	ldr	r2, .L48+4
.LVL47:
	.loc 2 30 18 discriminator 5 view .LVU128
	movs	r1, #30
.LVL48:
	.loc 2 30 18 discriminator 5 view .LVU129
	ldr	r0, .L48+8
.LVL49:
	.loc 2 30 18 discriminator 5 view .LVU130
	bl	__assert_func
.LVL50:
.L47:
	.loc 2 36 18 discriminator 1 view .LVU131
	ldr	r3, .L48+12
	ldr	r2, .L48+4
	movs	r1, #36
	ldr	r0, .L48+8
	bl	__assert_func
.LVL51:
.L49:
	.align	2
.L48:
	.word	.LC2
	.word	__func__.12
	.word	.LC1
	.word	.LC3
	.cfi_endproc
.LFE5:
	.size	circbuffer_init, .-circbuffer_init
	.section	.text.bufferIsFull,"ax",%progbits
	.align	1
	.global	bufferIsFull
	.syntax unified
	.thumb
	.thumb_func
	.type	bufferIsFull, %function
bufferIsFull:
.LVL52:
.LFB6:
	.loc 2 39 37 is_stmt 1 view -0
	.cfi_startproc
	@ args = 0, pretend = 0, frame = 0
	@ frame_needed = 0, uses_anonymous_args = 0
	.loc 2 39 37 is_stmt 0 view .LVU133
	push	{r3, lr}
.LCFI10:
	.cfi_def_cfa_offset 8
	.cfi_offset 3, -8
	.cfi_offset 14, -4
	.loc 2 40 4 is_stmt 1 view .LVU134
	.loc 2 40 16 is_stmt 0 view .LVU135
	cbz	r0, .L53
	.loc 2 41 5 is_stmt 1 view .LVU136
	.loc 2 42 1 is_stmt 0 view .LVU137
	ldrb	r0, [r0, #6]	@ zero_extendqisi2
.LVL53:
	.loc 2 42 1 view .LVU138
	pop	{r3, pc}
.LVL54:
.L53:
	.loc 2 40 18 discriminator 1 view .LVU139
	ldr	r3, .L54
	ldr	r2, .L54+4
	movs	r1, #40
	ldr	r0, .L54+8
.LVL55:
	.loc 2 40 18 discriminator 1 view .LVU140
	bl	__assert_func
.LVL56:
.L55:
	.align	2
.L54:
	.word	.LC0
	.word	__func__.11
	.word	.LC1
	.cfi_endproc
.LFE6:
	.size	bufferIsFull, .-bufferIsFull
	.section	.text.circbuff_entries,"ax",%progbits
	.align	1
	.global	circbuff_entries
	.syntax unified
	.thumb
	.thumb_func
	.type	circbuff_entries, %function
circbuff_entries:
.LVL57:
.LFB7:
	.loc 2 44 45 is_stmt 1 view -0
	.cfi_startproc
	@ args = 0, pretend = 0, frame = 0
	@ frame_needed = 0, uses_anonymous_args = 0
	.loc 2 44 45 is_stmt 0 view .LVU142
	push	{r3, lr}
.LCFI11:
	.cfi_def_cfa_offset 8
	.cfi_offset 3, -8
	.cfi_offset 14, -4
	.loc 2 45 4 is_stmt 1 view .LVU143
	.loc 2 45 16 is_stmt 0 view .LVU144
	cbz	r0, .L61
	mov	r3, r0
	.loc 2 47 2 is_stmt 1 view .LVU145
	.loc 2 47 10 is_stmt 0 view .LVU146
	ldrb	r0, [r0, #7]	@ zero_extendqisi2
.LVL58:
	.loc 2 49 2 is_stmt 1 view .LVU147
	.loc 2 49 12 is_stmt 0 view .LVU148
	ldrb	r2, [r3, #6]	@ zero_extendqisi2
	.loc 2 49 4 view .LVU149
	cbnz	r2, .L58
	.loc 2 51 6 is_stmt 1 view .LVU150
	.loc 2 51 15 is_stmt 0 view .LVU151
	ldrb	r2, [r3, #4]	@ zero_extendqisi2
	.loc 2 51 36 view .LVU152
	ldrb	r3, [r3, #5]	@ zero_extendqisi2
.LVL59:
	.loc 2 51 8 view .LVU153
	cmp	r2, r3
	bcc	.L59
	.loc 2 52 4 is_stmt 1 view .LVU154
	.loc 2 52 9 is_stmt 0 view .LVU155
	subs	r2, r2, r3
	uxtb	r0, r2
.LVL60:
.L58:
	.loc 2 57 5 is_stmt 1 view .LVU156
	.loc 2 58 1 is_stmt 0 view .LVU157
	pop	{r3, pc}
.LVL61:
.L61:
	.loc 2 45 18 discriminator 1 view .LVU158
	ldr	r3, .L62
	ldr	r2, .L62+4
	movs	r1, #45
	ldr	r0, .L62+8
.LVL62:
	.loc 2 45 18 discriminator 1 view .LVU159
	bl	__assert_func
.LVL63:
.L59:
	.loc 2 54 4 is_stmt 1 view .LVU160
	.loc 2 54 23 is_stmt 0 view .LVU161
	add	r0, r0, r2
.LVL64:
	.loc 2 54 23 view .LVU162
	uxtb	r0, r0
	.loc 2 54 9 view .LVU163
	subs	r0, r0, r3
	uxtb	r0, r0
.LVL65:
	.loc 2 54 9 view .LVU164
	b	.L58
.L63:
	.align	2
.L62:
	.word	.LC0
	.word	__func__.10
	.word	.LC1
	.cfi_endproc
.LFE7:
	.size	circbuff_entries, .-circbuff_entries
	.section	.rodata.circbuffer_queue.str1.4,"aMS",%progbits,1
	.align	2
.LC4:
	.ascii	"myBuff && myBuff->buffer\000"
	.section	.text.circbuffer_queue,"ax",%progbits
	.align	1
	.global	circbuffer_queue
	.syntax unified
	.thumb
	.thumb_func
	.type	circbuffer_queue, %function
circbuffer_queue:
.LVL66:
.LFB10:
	.loc 2 87 53 is_stmt 1 view -0
	.cfi_startproc
	@ args = 0, pretend = 0, frame = 0
	@ frame_needed = 0, uses_anonymous_args = 0
	.loc 2 87 53 is_stmt 0 view .LVU166
	push	{r3, lr}
.LCFI12:
	.cfi_def_cfa_offset 8
	.cfi_offset 3, -8
	.cfi_offset 14, -4
	.loc 2 88 4 is_stmt 1 view .LVU167
	.loc 2 88 16 is_stmt 0 view .LVU168
	cbz	r0, .L65
	mov	r3, r0
	.loc 2 88 20 discriminator 2 view .LVU169
	ldr	r2, [r0]
	.loc 2 88 11 discriminator 2 view .LVU170
	cbz	r2, .L65
	.loc 2 90 5 is_stmt 1 view .LVU171
	.loc 2 90 26 is_stmt 0 view .LVU172
	ldrb	r0, [r0, #4]	@ zero_extendqisi2
.LVL67:
	.loc 2 90 39 view .LVU173
	strb	r1, [r2, r0]
	.loc 2 92 5 is_stmt 1 view .LVU174
	mov	r0, r3
	bl	advancePointer
.LVL68:
	.loc 2 93 1 is_stmt 0 view .LVU175
	pop	{r3, pc}
.LVL69:
.L65:
	.loc 2 88 18 discriminator 3 view .LVU176
	ldr	r3, .L68
	ldr	r2, .L68+4
	movs	r1, #88
.LVL70:
	.loc 2 88 18 discriminator 3 view .LVU177
	ldr	r0, .L68+8
.LVL71:
	.loc 2 88 18 discriminator 3 view .LVU178
	bl	__assert_func
.LVL72:
.L69:
	.align	2
.L68:
	.word	.LC4
	.word	__func__.9
	.word	.LC1
	.cfi_endproc
.LFE10:
	.size	circbuffer_queue, .-circbuffer_queue
	.section	.rodata.circbuffer_dequeue.str1.4,"aMS",%progbits,1
	.align	2
.LC5:
	.ascii	"data\000"
	.align	2
.LC6:
	.ascii	"myBuff->buffer\000"
	.section	.text.circbuffer_dequeue,"ax",%progbits
	.align	1
	.global	circbuffer_dequeue
	.syntax unified
	.thumb
	.thumb_func
	.type	circbuffer_dequeue, %function
circbuffer_dequeue:
.LVL73:
.LFB11:
	.loc 2 95 55 is_stmt 1 view -0
	.cfi_startproc
	@ args = 0, pretend = 0, frame = 0
	@ frame_needed = 0, uses_anonymous_args = 0
	.loc 2 95 55 is_stmt 0 view .LVU180
	push	{r4, r5, r6, lr}
.LCFI13:
	.cfi_def_cfa_offset 16
	.cfi_offset 4, -16
	.cfi_offset 5, -12
	.cfi_offset 6, -8
	.cfi_offset 14, -4
	.loc 2 96 4 is_stmt 1 view .LVU181
	.loc 2 96 16 is_stmt 0 view .LVU182
	cbz	r0, .L77
	mov	r4, r1
	mov	r5, r0
	.loc 2 97 4 is_stmt 1 view .LVU183
	.loc 2 97 16 is_stmt 0 view .LVU184
	cbz	r1, .L78
	.loc 2 98 4 is_stmt 1 view .LVU185
	.loc 2 98 10 is_stmt 0 view .LVU186
	ldr	r6, [r0]
	.loc 2 98 16 view .LVU187
	cbz	r6, .L79
	.loc 2 100 4 is_stmt 1 view .LVU188
.LVL74:
	.loc 2 102 5 view .LVU189
	.loc 2 102 9 is_stmt 0 view .LVU190
	bl	bufferIsEmpty
.LVL75:
	.loc 2 102 7 view .LVU191
	cbz	r0, .L80
	.loc 2 100 9 view .LVU192
	movs	r0, #0
.LVL76:
.L74:
	.loc 2 108 5 is_stmt 1 view .LVU193
	.loc 2 109 1 is_stmt 0 view .LVU194
	pop	{r4, r5, r6, pc}
.LVL77:
.L77:
	.loc 2 96 18 discriminator 1 view .LVU195
	ldr	r3, .L81
	ldr	r2, .L81+4
	movs	r1, #96
.LVL78:
	.loc 2 96 18 discriminator 1 view .LVU196
	ldr	r0, .L81+8
.LVL79:
	.loc 2 96 18 discriminator 1 view .LVU197
	bl	__assert_func
.LVL80:
.L78:
	.loc 2 97 18 discriminator 1 view .LVU198
	ldr	r3, .L81+12
	ldr	r2, .L81+4
	movs	r1, #97
.LVL81:
	.loc 2 97 18 discriminator 1 view .LVU199
	ldr	r0, .L81+8
.LVL82:
	.loc 2 97 18 discriminator 1 view .LVU200
	bl	__assert_func
.LVL83:
.L79:
	.loc 2 98 18 discriminator 1 view .LVU201
	ldr	r3, .L81+16
	ldr	r2, .L81+4
	movs	r1, #98
.LVL84:
	.loc 2 98 18 discriminator 1 view .LVU202
	ldr	r0, .L81+8
.LVL85:
	.loc 2 98 18 discriminator 1 view .LVU203
	bl	__assert_func
.LVL86:
.L80:
	.loc 2 103 9 is_stmt 1 view .LVU204
	.loc 2 103 38 is_stmt 0 view .LVU205
	ldrb	r3, [r5, #5]	@ zero_extendqisi2
	.loc 2 103 31 view .LVU206
	ldrb	r3, [r6, r3]	@ zero_extendqisi2
	.loc 2 103 15 view .LVU207
	strb	r3, [r4]
	.loc 2 104 9 is_stmt 1 view .LVU208
	mov	r0, r5
	bl	backPointer
.LVL87:
	.loc 2 105 9 view .LVU209
	.loc 2 105 11 is_stmt 0 view .LVU210
	movs	r0, #1
	b	.L74
.L82:
	.align	2
.L81:
	.word	.LC0
	.word	__func__.7
	.word	.LC1
	.word	.LC5
	.word	.LC6
	.cfi_endproc
.LFE11:
	.size	circbuffer_dequeue, .-circbuffer_dequeue
	.section	.rodata.circbuff_recent.str1.4,"aMS",%progbits,1
	.align	2
.LC7:
	.ascii	"myBuff && data && myBuff->buffer\000"
	.section	.text.circbuff_recent,"ax",%progbits
	.align	1
	.global	circbuff_recent
	.syntax unified
	.thumb
	.thumb_func
	.type	circbuff_recent, %function
circbuff_recent:
.LVL88:
.LFB12:
	.loc 2 111 52 is_stmt 1 view -0
	.cfi_startproc
	@ args = 0, pretend = 0, frame = 0
	@ frame_needed = 0, uses_anonymous_args = 0
	.loc 2 111 52 is_stmt 0 view .LVU212
	push	{r4, r5, r6, lr}
.LCFI14:
	.cfi_def_cfa_offset 16
	.cfi_offset 4, -16
	.cfi_offset 5, -12
	.cfi_offset 6, -8
	.cfi_offset 14, -4
	.loc 2 112 4 is_stmt 1 view .LVU213
	.loc 2 112 16 is_stmt 0 view .LVU214
	cbz	r0, .L84
	mov	r4, r1
	mov	r6, r0
	.loc 2 112 11 discriminator 2 view .LVU215
	cbz	r1, .L84
	.loc 2 112 28 discriminator 4 view .LVU216
	ldr	r5, [r0]
	.loc 2 112 19 discriminator 4 view .LVU217
	cbz	r5, .L84
	.loc 2 114 4 is_stmt 1 view .LVU218
.LVL89:
	.loc 2 116 5 view .LVU219
	.loc 2 116 9 is_stmt 0 view .LVU220
	bl	bufferIsEmpty
.LVL90:
	.loc 2 116 7 view .LVU221
	cbnz	r0, .L88
	.loc 2 118 9 is_stmt 1 view .LVU222
	.loc 2 118 18 is_stmt 0 view .LVU223
	ldrb	r3, [r6, #4]	@ zero_extendqisi2
	.loc 2 118 11 view .LVU224
	cbnz	r3, .L87
	.loc 2 119 13 is_stmt 1 view .LVU225
	.loc 2 119 40 is_stmt 0 view .LVU226
	ldrb	r3, [r6, #7]	@ zero_extendqisi2
	.loc 2 119 47 view .LVU227
	subs	r3, r3, #1
	uxtb	r3, r3
	.loc 2 119 31 view .LVU228
	strb	r3, [r6, #4]
	.loc 2 120 13 is_stmt 1 view .LVU229
	.loc 2 120 35 is_stmt 0 view .LVU230
	ldrb	r3, [r5, r3]	@ zero_extendqisi2
	.loc 2 120 19 view .LVU231
	strb	r3, [r4]
	.loc 2 121 13 is_stmt 1 view .LVU232
.LVL91:
	.loc 2 121 15 is_stmt 0 view .LVU233
	movs	r0, #1
	b	.L86
.LVL92:
.L84:
	.loc 2 112 18 discriminator 5 view .LVU234
	ldr	r3, .L90
	ldr	r2, .L90+4
	movs	r1, #112
.LVL93:
	.loc 2 112 18 discriminator 5 view .LVU235
	ldr	r0, .L90+8
.LVL94:
	.loc 2 112 18 discriminator 5 view .LVU236
	bl	__assert_func
.LVL95:
.L87:
	.loc 2 124 13 is_stmt 1 view .LVU237
	.loc 2 124 36 is_stmt 0 view .LVU238
	subs	r3, r3, #1
	uxtb	r3, r3
	.loc 2 124 19 view .LVU239
	strb	r3, [r6, #4]
	.loc 2 124 35 view .LVU240
	ldrb	r3, [r5, r3]	@ zero_extendqisi2
	.loc 2 124 19 view .LVU241
	strb	r3, [r4]
	.loc 2 125 13 is_stmt 1 view .LVU242
.LVL96:
	.loc 2 125 15 is_stmt 0 view .LVU243
	movs	r0, #1
	b	.L86
.LVL97:
.L88:
	.loc 2 114 9 view .LVU244
	movs	r0, #0
.LVL98:
.L86:
	.loc 2 129 5 is_stmt 1 view .LVU245
	.loc 2 130 1 is_stmt 0 view .LVU246
	pop	{r4, r5, r6, pc}
.LVL99:
.L91:
	.loc 2 130 1 view .LVU247
	.align	2
.L90:
	.word	.LC7
	.word	__func__.5
	.word	.LC1
	.cfi_endproc
.LFE12:
	.size	circbuff_recent, .-circbuff_recent
	.section	.text.usart_isr,"ax",%progbits
	.align	1
	.global	usart_isr
	.syntax unified
	.thumb
	.thumb_func
	.type	usart_isr, %function
usart_isr:
.LFB15:
	.loc 3 109 1 is_stmt 1 view -0
	.cfi_startproc
	@ args = 0, pretend = 0, frame = 8
	@ frame_needed = 0, uses_anonymous_args = 0
	push	{r4, lr}
.LCFI15:
	.cfi_def_cfa_offset 8
	.cfi_offset 4, -8
	.cfi_offset 14, -4
	sub	sp, sp, #8
.LCFI16:
	.cfi_def_cfa_offset 16
	.loc 3 110 3 view .LVU249
	.loc 3 110 9 is_stmt 0 view .LVU250
	mov	r3, #1073758208
	ldr	r3, [r3, #1024]
	.loc 3 110 5 view .LVU251
	tst	r3, #32
	bne	.L97
.L93:
	.loc 3 115 3 is_stmt 1 view .LVU252
	.loc 3 115 9 is_stmt 0 view .LVU253
	mov	r3, #1073758208
	ldr	r3, [r3, #1024]
	.loc 3 115 5 view .LVU254
	tst	r3, #128
	bne	.L98
.L92:
	.loc 3 127 1 view .LVU255
	add	sp, sp, #8
.LCFI17:
	.cfi_remember_state
	.cfi_def_cfa_offset 8
	@ sp needed
	pop	{r4, pc}
.L97:
.LCFI18:
	.cfi_restore_state
	.loc 3 110 102 discriminator 1 view .LVU256
	movs	r1, #32
	ldr	r0, .L99
	bl	usart_get_flag
.LVL100:
	.loc 3 110 98 discriminator 1 view .LVU257
	cmp	r0, #0
	beq	.L93
	.loc 3 112 7 is_stmt 1 view .LVU258
	.loc 3 112 39 is_stmt 0 view .LVU259
	ldr	r0, .L99
	bl	usart_recv
.LVL101:
	.loc 3 112 7 view .LVU260
	uxtb	r1, r0
	ldr	r0, .L99+4
	bl	circbuffer_queue
.LVL102:
	b	.L93
.L98:
	.loc 3 115 102 discriminator 1 view .LVU261
	movs	r1, #128
	ldr	r0, .L99
	bl	usart_get_flag
.LVL103:
	.loc 3 115 98 discriminator 1 view .LVU262
	cmp	r0, #0
	beq	.L92
.LBB2:
	.loc 3 117 4 is_stmt 1 view .LVU263
	.loc 3 117 9 is_stmt 0 view .LVU264
	movs	r3, #0
	strb	r3, [sp, #7]
	.loc 3 118 4 is_stmt 1 view .LVU265
	ldr	r4, .L99+8
	add	r1, sp, #7
	mov	r0, r4
	bl	circbuffer_dequeue
.LVL104:
	.loc 3 119 4 view .LVU266
	ldrb	r1, [sp, #7]	@ zero_extendqisi2
	ldr	r0, .L99
	bl	usart_send
.LVL105:
	.loc 3 121 4 view .LVU267
	.loc 3 121 7 is_stmt 0 view .LVU268
	mov	r0, r4
	bl	bufferIsEmpty
.LVL106:
	.loc 3 121 6 view .LVU269
	cmp	r0, #0
	beq	.L92
	.loc 3 123 7 is_stmt 1 view .LVU270
	ldr	r0, .L99
	bl	usart_disable_tx_interrupt
.LVL107:
.LBE2:
	.loc 3 127 1 is_stmt 0 view .LVU271
	b	.L92
.L100:
	.align	2
.L99:
	.word	1073759232
	.word	circBufferIn
	.word	circBufferOut
	.cfi_endproc
.LFE15:
	.size	usart_isr, .-usart_isr
	.section	.text.timer_isr,"ax",%progbits
	.align	1
	.global	timer_isr
	.syntax unified
	.thumb
	.thumb_func
	.type	timer_isr, %function
timer_isr:
.LFB17:
	.loc 3 146 1 is_stmt 1 view -0
	.cfi_startproc
	@ args = 0, pretend = 0, frame = 0
	@ frame_needed = 0, uses_anonymous_args = 0
	push	{r3, lr}
.LCFI19:
	.cfi_def_cfa_offset 8
	.cfi_offset 3, -8
	.cfi_offset 14, -4
	.loc 3 147 3 view .LVU273
	.loc 3 147 6 is_stmt 0 view .LVU274
	movs	r1, #2
	mov	r0, #1073741824
	bl	timer_get_flag
.LVL108:
	.loc 3 147 5 view .LVU275
	cbnz	r0, .L104
.L101:
	.loc 3 154 1 view .LVU276
	pop	{r3, pc}
.L104:
	.loc 3 149 5 is_stmt 1 view .LVU277
	ldr	r3, .L105
	ldrh	r1, [r3]
	mov	r0, #1073741824
	bl	timer_set_period
.LVL109:
	.loc 3 150 5 view .LVU278
	movs	r1, #2
	mov	r0, #1073741824
	bl	timer_clear_flag
.LVL110:
	.loc 3 152 5 view .LVU279
	movs	r1, #32
	mov	r0, #1207959552
	bl	gpio_toggle
.LVL111:
	.loc 3 154 1 is_stmt 0 view .LVU280
	b	.L101
.L106:
	.align	2
.L105:
	.word	globalPeriod
	.cfi_endproc
.LFE17:
	.size	timer_isr, .-timer_isr
	.section	.text.convertCaps,"ax",%progbits
	.align	1
	.global	convertCaps
	.syntax unified
	.thumb
	.thumb_func
	.type	convertCaps, %function
convertCaps:
.LVL112:
.LFB18:
	.loc 3 156 34 is_stmt 1 view -0
	.cfi_startproc
	@ args = 0, pretend = 0, frame = 0
	@ frame_needed = 0, uses_anonymous_args = 0
	@ link register save eliminated.
	.loc 3 157 4 view .LVU282
	.loc 3 157 7 is_stmt 0 view .LVU283
	ldrb	r2, [r0]	@ zero_extendqisi2
	.loc 3 157 25 view .LVU284
	sub	r3, r2, #97
	uxtb	r3, r3
	.loc 3 157 6 view .LVU285
	cmp	r3, #25
	bhi	.L107
	.loc 3 158 7 is_stmt 1 view .LVU286
	.loc 3 158 39 is_stmt 0 view .LVU287
	subs	r2, r2, #32
	.loc 3 158 18 view .LVU288
	strb	r2, [r0]
.L107:
	.loc 3 159 1 view .LVU289
	bx	lr
	.cfi_endproc
.LFE18:
	.size	convertCaps, .-convertCaps
	.section	.text.encrypt,"ax",%progbits
	.align	1
	.global	encrypt
	.syntax unified
	.thumb
	.thumb_func
	.type	encrypt, %function
encrypt:
.LVL113:
.LFB19:
	.loc 3 161 29 is_stmt 1 view -0
	.cfi_startproc
	@ args = 0, pretend = 0, frame = 0
	@ frame_needed = 0, uses_anonymous_args = 0
	@ link register save eliminated.
	.loc 3 162 4 view .LVU291
	.loc 3 164 4 view .LVU292
	.loc 3 164 33 is_stmt 0 view .LVU293
	ldr	r1, .L112
	ldrb	r2, [r1]	@ zero_extendqisi2
	ldr	r3, .L112+4
	ldrb	r3, [r3, r2]	@ zero_extendqisi2
	.loc 3 164 28 view .LVU294
	add	r0, r0, r3
.LVL114:
	.loc 3 164 40 view .LVU295
	ldr	r3, .L112+8
	smull	ip, r3, r3, r0
	asrs	r3, r3, #3
	mov	ip, #26
	mls	r3, ip, r3, r0
	.loc 3 164 46 view .LVU296
	uxtb	r0, r3
	.loc 3 164 14 view .LVU297
	adds	r0, r0, #65
	uxtb	r0, r0
.LVL115:
	.loc 3 165 4 is_stmt 1 view .LVU298
	adds	r3, r2, #1
	uxtb	r3, r3
	strb	r3, [r1]
	.loc 3 167 4 view .LVU299
	.loc 3 167 8 is_stmt 0 view .LVU300
	cmp	r3, #21
	beq	.L111
.L110:
	.loc 3 167 8 discriminator 4 view .LVU301
	ldr	r2, .L112
	strb	r3, [r2]
	.loc 3 169 4 is_stmt 1 discriminator 4 view .LVU302
	.loc 3 170 1 is_stmt 0 discriminator 4 view .LVU303
	bx	lr
.L111:
	.loc 3 167 8 view .LVU304
	movs	r3, #0
	b	.L110
.L113:
	.align	2
.L112:
	.word	pos.4
	.word	key
	.word	1321528399
	.cfi_endproc
.LFE19:
	.size	encrypt, .-encrypt
	.section	.text.decrypt,"ax",%progbits
	.align	1
	.global	decrypt
	.syntax unified
	.thumb
	.thumb_func
	.type	decrypt, %function
decrypt:
.LVL116:
.LFB20:
	.loc 3 172 29 is_stmt 1 view -0
	.cfi_startproc
	@ args = 0, pretend = 0, frame = 0
	@ frame_needed = 0, uses_anonymous_args = 0
	@ link register save eliminated.
	.loc 3 172 29 is_stmt 0 view .LVU306
	push	{r4}
.LCFI20:
	.cfi_def_cfa_offset 4
	.cfi_offset 4, -4
	.loc 3 173 4 is_stmt 1 view .LVU307
	.loc 3 175 4 view .LVU308
	.loc 3 175 33 is_stmt 0 view .LVU309
	ldr	r4, .L118
	ldrb	r2, [r4]	@ zero_extendqisi2
	ldr	r3, .L118+4
	ldrb	r3, [r3, r2]	@ zero_extendqisi2
	.loc 3 175 28 view .LVU310
	subs	r0, r0, r3
.LVL117:
	.loc 3 175 39 view .LVU311
	adds	r0, r0, #26
	.loc 3 175 45 view .LVU312
	ldr	r1, .L118+8
	smull	r3, r1, r1, r0
	asrs	r3, r0, #31
	rsb	r3, r3, r1, asr #3
	movs	r1, #26
	mls	r3, r1, r3, r0
	.loc 3 175 51 view .LVU313
	uxtb	r0, r3
	.loc 3 175 14 view .LVU314
	adds	r0, r0, #65
	uxtb	r0, r0
.LVL118:
	.loc 3 176 4 is_stmt 1 view .LVU315
	adds	r3, r2, #1
	uxtb	r3, r3
	strb	r3, [r4]
	.loc 3 178 4 view .LVU316
	.loc 3 178 8 is_stmt 0 view .LVU317
	cmp	r3, #21
	beq	.L117
.L115:
	.loc 3 178 8 discriminator 4 view .LVU318
	ldr	r2, .L118
	strb	r3, [r2]
	.loc 3 180 4 is_stmt 1 discriminator 4 view .LVU319
	.loc 3 181 1 is_stmt 0 discriminator 4 view .LVU320
	ldr	r4, [sp], #4
.LCFI21:
	.cfi_remember_state
	.cfi_restore 4
	.cfi_def_cfa_offset 0
	bx	lr
.L117:
.LCFI22:
	.cfi_restore_state
	.loc 3 178 8 view .LVU321
	movs	r3, #0
	b	.L115
.L119:
	.align	2
.L118:
	.word	pos.3
	.word	key
	.word	1321528399
	.cfi_endproc
.LFE20:
	.size	decrypt, .-decrypt
	.section	.text._write,"ax",%progbits
	.align	1
	.global	_write
	.syntax unified
	.thumb
	.thumb_func
	.type	_write, %function
_write:
.LVL119:
.LFB22:
	.loc 1 25 41 is_stmt 1 view -0
	.cfi_startproc
	@ args = 0, pretend = 0, frame = 0
	@ frame_needed = 0, uses_anonymous_args = 0
	.loc 1 25 41 is_stmt 0 view .LVU323
	push	{r3, r4, r5, r6, r7, lr}
.LCFI23:
	.cfi_def_cfa_offset 24
	.cfi_offset 3, -24
	.cfi_offset 4, -20
	.cfi_offset 5, -16
	.cfi_offset 6, -12
	.cfi_offset 7, -8
	.cfi_offset 14, -4
	.loc 1 26 5 is_stmt 1 view .LVU324
	.loc 1 28 5 view .LVU325
	.loc 1 28 30 is_stmt 0 view .LVU326
	subs	r0, r0, #1
.LVL120:
	.loc 1 28 8 view .LVU327
	cmp	r0, #1
	bhi	.L129
	mov	r5, r1
	mov	r7, r2
	.loc 1 29 12 view .LVU328
	movs	r4, #0
	b	.L121
.LVL121:
.L123:
	.loc 1 33 7 is_stmt 1 discriminator 2 view .LVU329
	ldrb	r1, [r6]	@ zero_extendqisi2
	ldr	r0, .L130
	bl	usart_send_blocking
.LVL122:
	.loc 1 29 27 discriminator 2 view .LVU330
	adds	r4, r4, #1
.LVL123:
.L121:
	.loc 1 29 19 discriminator 1 view .LVU331
	cmp	r4, r7
	bge	.L120
	.loc 1 30 7 view .LVU332
	.loc 1 30 13 is_stmt 0 view .LVU333
	adds	r6, r5, r4
	ldrb	r3, [r5, r4]	@ zero_extendqisi2
	.loc 1 30 9 view .LVU334
	cmp	r3, #10
	bne	.L123
	.loc 1 31 8 is_stmt 1 view .LVU335
	movs	r1, #13
	ldr	r0, .L130
	bl	usart_send_blocking
.LVL124:
	b	.L123
.LVL125:
.L129:
	.loc 1 39 4 view .LVU336
	.loc 1 39 6 is_stmt 0 view .LVU337
	bl	__errno
.LVL126:
	.loc 1 39 10 view .LVU338
	movs	r3, #5
	str	r3, [r0]
	.loc 1 40 5 is_stmt 1 view .LVU339
	.loc 1 40 12 is_stmt 0 view .LVU340
	mov	r4, #-1
.L120:
	.loc 1 41 1 view .LVU341
	mov	r0, r4
	pop	{r3, r4, r5, r6, r7, pc}
.L131:
	.align	2
.L130:
	.word	1073759232
	.cfi_endproc
.LFE22:
	.size	_write, .-_write
	.section	.text.cipherHandler,"ax",%progbits
	.align	1
	.global	cipherHandler
	.syntax unified
	.thumb
	.thumb_func
	.type	cipherHandler, %function
cipherHandler:
.LVL127:
.LFB25:
	.loc 1 169 1 is_stmt 1 view -0
	.cfi_startproc
	@ args = 0, pretend = 0, frame = 8
	@ frame_needed = 0, uses_anonymous_args = 0
	.loc 1 169 1 is_stmt 0 view .LVU343
	push	{lr}
.LCFI24:
	.cfi_def_cfa_offset 4
	.cfi_offset 14, -4
	sub	sp, sp, #12
.LCFI25:
	.cfi_def_cfa_offset 16
	strb	r0, [sp, #7]
	.loc 1 170 7 is_stmt 1 view .LVU344
	add	r0, sp, #7
.LVL128:
	.loc 1 170 7 is_stmt 0 view .LVU345
	bl	convertCaps
.LVL129:
	.loc 1 172 7 is_stmt 1 view .LVU346
	.loc 1 172 11 is_stmt 0 view .LVU347
	mov	r1, #8192
	ldr	r0, .L136
	bl	gpio_get
.LVL130:
	.loc 1 172 9 view .LVU348
	cbnz	r0, .L133
	.loc 1 173 13 is_stmt 1 view .LVU349
	.loc 1 173 20 is_stmt 0 view .LVU350
	ldrb	r0, [sp, #7]	@ zero_extendqisi2
	bl	decrypt
.LVL131:
	.loc 1 173 18 view .LVU351
	strb	r0, [sp, #7]
.L134:
	.loc 1 177 7 is_stmt 1 view .LVU352
	ldrb	r1, [sp, #7]	@ zero_extendqisi2
	ldr	r0, .L136+4
	bl	circbuffer_queue
.LVL132:
	.loc 1 178 7 view .LVU353
	ldr	r0, .L136+8
	bl	usart_enable_tx_interrupt
.LVL133:
	.loc 1 179 1 is_stmt 0 view .LVU354
	add	sp, sp, #12
.LCFI26:
	.cfi_remember_state
	.cfi_def_cfa_offset 4
	@ sp needed
	ldr	pc, [sp], #4
.L133:
.LCFI27:
	.cfi_restore_state
	.loc 1 175 13 is_stmt 1 view .LVU355
	.loc 1 175 20 is_stmt 0 view .LVU356
	ldrb	r0, [sp, #7]	@ zero_extendqisi2
	bl	encrypt
.LVL134:
	.loc 1 175 18 view .LVU357
	strb	r0, [sp, #7]
	b	.L134
.L137:
	.align	2
.L136:
	.word	1207961600
	.word	circBufferIn
	.word	1073759232
	.cfi_endproc
.LFE25:
	.size	cipherHandler, .-cipherHandler
	.section	.rodata.fixPeriod.str1.4,"aMS",%progbits,1
	.align	2
.LC8:
	.ascii	"0000\000"
	.section	.text.fixPeriod,"ax",%progbits
	.align	1
	.global	fixPeriod
	.syntax unified
	.thumb
	.thumb_func
	.type	fixPeriod, %function
fixPeriod:
.LVL135:
.LFB26:
	.loc 1 182 1 is_stmt 1 view -0
	.cfi_startproc
	@ args = 0, pretend = 0, frame = 8
	@ frame_needed = 0, uses_anonymous_args = 0
	.loc 1 182 1 is_stmt 0 view .LVU359
	push	{lr}
.LCFI28:
	.cfi_def_cfa_offset 4
	.cfi_offset 14, -4
	sub	sp, sp, #12
.LCFI29:
	.cfi_def_cfa_offset 16
	mov	ip, r0
	.loc 1 183 7 is_stmt 1 view .LVU360
	.loc 1 183 12 is_stmt 0 view .LVU361
	ldr	r3, .L142
	ldm	r3, {r0, r1}
.LVL136:
	.loc 1 183 12 view .LVU362
	str	r0, [sp]
	strb	r1, [sp, #4]
	.loc 1 185 7 is_stmt 1 view .LVU363
.LBB3:
	.loc 1 185 12 view .LVU364
.LVL137:
	.loc 1 185 16 is_stmt 0 view .LVU365
	movs	r3, #0
	.loc 1 185 7 view .LVU366
	b	.L139
.LVL138:
.L140:
	.loc 1 187 13 is_stmt 1 discriminator 3 view .LVU367
	.loc 1 187 32 is_stmt 0 discriminator 3 view .LVU368
	ldrb	r1, [ip, r3]	@ zero_extendqisi2
	.loc 1 187 24 discriminator 3 view .LVU369
	add	r2, r3, #8
	add	r2, sp, r2
	strb	r1, [r2, #-8]
	.loc 1 185 31 is_stmt 1 discriminator 3 view .LVU370
	adds	r3, r3, #1
.LVL139:
.L139:
	.loc 1 185 25 discriminator 1 view .LVU371
	cmp	r3, #3
	ble	.L140
.LBE3:
	.loc 1 190 7 view .LVU372
	.loc 1 190 20 is_stmt 0 view .LVU373
	mov	r0, sp
	bl	atoi
.LVL140:
	.loc 1 191 7 is_stmt 1 view .LVU374
	.loc 1 191 20 is_stmt 0 view .LVU375
	ldr	r3, .L142+4
	strh	r0, [r3]	@ movhi
	.loc 1 193 1 view .LVU376
	add	sp, sp, #12
.LCFI30:
	.cfi_def_cfa_offset 4
	@ sp needed
	ldr	pc, [sp], #4
.L143:
	.align	2
.L142:
	.word	.LC8
	.word	globalPeriod
	.cfi_endproc
.LFE26:
	.size	fixPeriod, .-fixPeriod
	.section	.rodata.charHandler.str1.4,"aMS",%progbits,1
	.align	2
.LC9:
	.ascii	"Invalid!\000"
	.section	.text.charHandler,"ax",%progbits
	.align	1
	.global	charHandler
	.syntax unified
	.thumb
	.thumb_func
	.type	charHandler, %function
charHandler:
.LVL141:
.LFB24:
	.loc 1 74 1 is_stmt 1 view -0
	.cfi_startproc
	@ args = 0, pretend = 0, frame = 0
	@ frame_needed = 0, uses_anonymous_args = 0
	.loc 1 74 1 is_stmt 0 view .LVU378
	push	{r3, r4, r5, lr}
.LCFI31:
	.cfi_def_cfa_offset 16
	.cfi_offset 3, -16
	.cfi_offset 4, -12
	.cfi_offset 5, -8
	.cfi_offset 14, -4
	mov	r1, r0
	.loc 1 75 7 is_stmt 1 view .LVU379
	.loc 1 76 7 view .LVU380
	.loc 1 77 7 view .LVU381
	.loc 1 79 7 view .LVU382
	.loc 1 79 9 is_stmt 0 view .LVU383
	cmp	r0, #33
	beq	.L172
.L145:
	.loc 1 81 12 is_stmt 1 view .LVU384
	.loc 1 81 22 is_stmt 0 view .LVU385
	ldr	r3, .L176
	ldr	r3, [r3]
	.loc 1 81 14 view .LVU386
	cmp	r3, #3
	beq	.L173
.L147:
	.loc 1 83 12 is_stmt 1 view .LVU387
	.loc 1 83 14 is_stmt 0 view .LVU388
	cmp	r3, #3
	beq	.L174
.L148:
	.loc 1 85 12 is_stmt 1 view .LVU389
	.loc 1 85 14 is_stmt 0 view .LVU390
	cmp	r3, #3
	beq	.L175
.L149:
	.loc 1 88 12 is_stmt 1 view .LVU391
	.loc 1 88 14 is_stmt 0 view .LVU392
	cmp	r3, #5
	bgt	.L150
	.loc 1 89 13 is_stmt 1 view .LVU393
	.loc 1 89 20 is_stmt 0 view .LVU394
	ldr	r3, .L176
	movs	r2, #0
	str	r2, [r3]
.L146:
	.loc 1 99 7 is_stmt 1 view .LVU395
	ldr	r3, .L176
	ldr	r3, [r3]
	cmp	r3, #10
	bhi	.L144
	tbb	[pc, r3]
.L155:
	.byte	(.L165-.L155)/2
	.byte	(.L164-.L155)/2
	.byte	(.L163-.L155)/2
	.byte	(.L162-.L155)/2
	.byte	(.L161-.L155)/2
	.byte	(.L160-.L155)/2
	.byte	(.L159-.L155)/2
	.byte	(.L158-.L155)/2
	.byte	(.L157-.L155)/2
	.byte	(.L156-.L155)/2
	.byte	(.L154-.L155)/2
	.p2align 1
.L172:
	.loc 1 79 34 is_stmt 0 discriminator 1 view .LVU396
	ldr	r3, .L176
	ldr	r3, [r3]
	.loc 1 79 24 discriminator 1 view .LVU397
	cmp	r3, #3
	beq	.L145
	.loc 1 80 13 is_stmt 1 view .LVU398
	adds	r3, r3, #1
	ldr	r2, .L176
	str	r3, [r2]
	b	.L146
.L173:
	.loc 1 81 27 is_stmt 0 discriminator 1 view .LVU399
	cmp	r1, #76
	bne	.L147
	.loc 1 82 13 is_stmt 1 view .LVU400
	.loc 1 82 20 is_stmt 0 view .LVU401
	ldr	r3, .L176
	movs	r2, #4
	str	r2, [r3]
	b	.L146
.L174:
	.loc 1 83 27 discriminator 1 view .LVU402
	cmp	r1, #83
	bne	.L148
	.loc 1 84 13 is_stmt 1 view .LVU403
	.loc 1 84 20 is_stmt 0 view .LVU404
	ldr	r3, .L176
	movs	r2, #5
	str	r2, [r3]
	b	.L146
.L175:
	.loc 1 85 27 discriminator 1 view .LVU405
	cmp	r1, #33
	bne	.L149
	.loc 1 86 13 is_stmt 1 view .LVU406
	.loc 1 86 20 is_stmt 0 view .LVU407
	ldr	r3, .L176
	movs	r2, #10
	str	r2, [r3]
	b	.L146
.L150:
	.loc 1 90 12 is_stmt 1 discriminator 1 view .LVU408
	.loc 1 90 45 is_stmt 0 discriminator 1 view .LVU409
	sub	r3, r1, #48
	uxtb	r3, r3
	.loc 1 90 27 discriminator 1 view .LVU410
	cmp	r3, #9
	bls	.L146
	.loc 1 91 13 is_stmt 1 view .LVU411
	.loc 1 91 20 is_stmt 0 view .LVU412
	movs	r4, #0
	ldr	r3, .L176
	str	r4, [r3]
	.loc 1 92 13 is_stmt 1 view .LVU413
	ldr	r0, .L176+4
.LVL142:
	.loc 1 92 13 is_stmt 0 view .LVU414
	bl	printf
.LVL143:
	.loc 1 94 13 is_stmt 1 view .LVU415
.LBB4:
	.loc 1 94 17 view .LVU416
	.loc 1 94 21 is_stmt 0 view .LVU417
	mov	r3, r4
	.loc 1 94 13 view .LVU418
	b	.L151
.LVL144:
.L152:
	.loc 1 95 19 is_stmt 1 discriminator 3 view .LVU419
	.loc 1 95 41 is_stmt 0 discriminator 3 view .LVU420
	ldr	r2, .L176+8
	ldrb	r1, [r2, r3]	@ zero_extendqisi2
	.loc 1 95 29 discriminator 3 view .LVU421
	ldr	r2, .L176+12
	strb	r1, [r2, r3]
	.loc 1 94 36 is_stmt 1 discriminator 3 view .LVU422
	adds	r3, r3, #1
.LVL145:
.L151:
	.loc 1 94 30 discriminator 1 view .LVU423
	cmp	r3, #3
	ble	.L152
	b	.L144
.LVL146:
.L165:
	.loc 1 94 30 is_stmt 0 discriminator 1 view .LVU424
.LBE4:
	.loc 1 102 13 is_stmt 1 view .LVU425
	mov	r0, r1
.LVL147:
	.loc 1 102 13 is_stmt 0 view .LVU426
	bl	cipherHandler
.LVL148:
	.loc 1 103 13 is_stmt 1 view .LVU427
.L144:
	.loc 1 166 1 is_stmt 0 view .LVU428
	pop	{r3, r4, r5, pc}
.LVL149:
.L164:
	.loc 1 105 13 is_stmt 1 view .LVU429
	ldr	r0, .L176+16
.LVL150:
	.loc 1 105 13 is_stmt 0 view .LVU430
	bl	circbuffer_queue
.LVL151:
	.loc 1 106 13 is_stmt 1 view .LVU431
	ldr	r0, .L176+20
	bl	usart_enable_tx_interrupt
.LVL152:
	.loc 1 107 13 view .LVU432
	b	.L144
.LVL153:
.L163:
	.loc 1 109 13 view .LVU433
	ldr	r0, .L176+16
.LVL154:
	.loc 1 109 13 is_stmt 0 view .LVU434
	bl	circbuffer_queue
.LVL155:
	.loc 1 110 13 is_stmt 1 view .LVU435
	ldr	r0, .L176+20
	bl	usart_enable_tx_interrupt
.LVL156:
	.loc 1 111 13 view .LVU436
	b	.L144
.LVL157:
.L162:
	.loc 1 113 13 view .LVU437
	ldr	r0, .L176+16
.LVL158:
	.loc 1 113 13 is_stmt 0 view .LVU438
	bl	circbuffer_queue
.LVL159:
	.loc 1 114 13 is_stmt 1 view .LVU439
	ldr	r0, .L176+20
	bl	usart_enable_tx_interrupt
.LVL160:
	.loc 1 115 13 view .LVU440
	b	.L144
.LVL161:
.L161:
	.loc 1 117 13 view .LVU441
	ldr	r0, .L176+16
.LVL162:
	.loc 1 117 13 is_stmt 0 view .LVU442
	bl	circbuffer_queue
.LVL163:
	.loc 1 119 13 is_stmt 1 view .LVU443
.LBB5:
	.loc 1 119 18 view .LVU444
	.loc 1 119 22 is_stmt 0 view .LVU445
	movs	r4, #0
	.loc 1 119 13 view .LVU446
	b	.L166
.LVL164:
.L167:
	.loc 1 121 19 is_stmt 1 discriminator 3 view .LVU447
	ldr	r3, .L176+12
	ldrb	r1, [r3, r4]	@ zero_extendqisi2
	ldr	r0, .L176+16
	bl	circbuffer_queue
.LVL165:
	.loc 1 119 37 discriminator 3 view .LVU448
	adds	r4, r4, #1
.LVL166:
.L166:
	.loc 1 119 31 discriminator 1 view .LVU449
	cmp	r4, #3
	ble	.L167
.LBE5:
	.loc 1 123 13 view .LVU450
	ldr	r0, .L176+20
	bl	usart_enable_tx_interrupt
.LVL167:
	.loc 1 124 13 view .LVU451
	.loc 1 124 20 is_stmt 0 view .LVU452
	ldr	r3, .L176
	movs	r2, #0
	str	r2, [r3]
	.loc 1 125 13 is_stmt 1 view .LVU453
	b	.L144
.LVL168:
.L160:
	.loc 1 127 13 view .LVU454
	adds	r3, r3, #1
	ldr	r2, .L176
	str	r3, [r2]
	.loc 1 128 13 view .LVU455
	ldr	r0, .L176+16
.LVL169:
	.loc 1 128 13 is_stmt 0 view .LVU456
	bl	circbuffer_queue
.LVL170:
	.loc 1 129 13 is_stmt 1 view .LVU457
	ldr	r0, .L176+20
	bl	usart_enable_tx_interrupt
.LVL171:
	.loc 1 130 13 view .LVU458
	b	.L144
.LVL172:
.L159:
	.loc 1 132 13 view .LVU459
	adds	r3, r3, #1
	ldr	r2, .L176
	str	r3, [r2]
	.loc 1 133 13 view .LVU460
	.loc 1 133 23 is_stmt 0 view .LVU461
	ldr	r3, .L176+12
	strb	r1, [r3]
	.loc 1 134 13 is_stmt 1 view .LVU462
	ldr	r0, .L176+16
.LVL173:
	.loc 1 134 13 is_stmt 0 view .LVU463
	bl	circbuffer_queue
.LVL174:
	.loc 1 135 13 is_stmt 1 view .LVU464
	ldr	r0, .L176+20
	bl	usart_enable_tx_interrupt
.LVL175:
	.loc 1 136 13 view .LVU465
	b	.L144
.LVL176:
.L158:
	.loc 1 138 13 view .LVU466
	adds	r3, r3, #1
	ldr	r2, .L176
	str	r3, [r2]
	.loc 1 139 13 view .LVU467
	.loc 1 139 23 is_stmt 0 view .LVU468
	ldr	r3, .L176+12
	strb	r1, [r3, #1]
	.loc 1 140 13 is_stmt 1 view .LVU469
	ldr	r0, .L176+16
.LVL177:
	.loc 1 140 13 is_stmt 0 view .LVU470
	bl	circbuffer_queue
.LVL178:
	.loc 1 141 13 is_stmt 1 view .LVU471
	ldr	r0, .L176+20
	bl	usart_enable_tx_interrupt
.LVL179:
	.loc 1 142 13 view .LVU472
	b	.L144
.LVL180:
.L157:
	.loc 1 144 13 view .LVU473
	adds	r3, r3, #1
	ldr	r2, .L176
	str	r3, [r2]
	.loc 1 145 13 view .LVU474
	.loc 1 145 23 is_stmt 0 view .LVU475
	ldr	r3, .L176+12
	strb	r1, [r3, #2]
	.loc 1 146 13 is_stmt 1 view .LVU476
	ldr	r0, .L176+16
.LVL181:
	.loc 1 146 13 is_stmt 0 view .LVU477
	bl	circbuffer_queue
.LVL182:
	.loc 1 147 13 is_stmt 1 view .LVU478
	ldr	r0, .L176+20
	bl	usart_enable_tx_interrupt
.LVL183:
	.loc 1 148 13 view .LVU479
	b	.L144
.LVL184:
.L156:
	.loc 1 150 13 view .LVU480
	.loc 1 150 20 is_stmt 0 view .LVU481
	movs	r4, #0
	ldr	r3, .L176
	str	r4, [r3]
	.loc 1 151 13 is_stmt 1 view .LVU482
	.loc 1 151 23 is_stmt 0 view .LVU483
	ldr	r5, .L176+12
	strb	r1, [r5, #3]
	.loc 1 152 13 is_stmt 1 view .LVU484
	ldr	r0, .L176+16
.LVL185:
	.loc 1 152 13 is_stmt 0 view .LVU485
	bl	circbuffer_queue
.LVL186:
	.loc 1 153 13 is_stmt 1 view .LVU486
	mov	r0, r5
	bl	fixPeriod
.LVL187:
	.loc 1 154 13 view .LVU487
.LBB6:
	.loc 1 154 18 view .LVU488
	.loc 1 154 22 is_stmt 0 view .LVU489
	mov	r3, r4
	.loc 1 154 13 view .LVU490
	b	.L168
.LVL188:
.L169:
	.loc 1 156 19 is_stmt 1 discriminator 3 view .LVU491
	.loc 1 156 41 is_stmt 0 discriminator 3 view .LVU492
	ldr	r2, .L176+12
	ldrb	r1, [r2, r3]	@ zero_extendqisi2
	.loc 1 156 33 discriminator 3 view .LVU493
	ldr	r2, .L176+8
	strb	r1, [r2, r3]
	.loc 1 154 37 is_stmt 1 discriminator 3 view .LVU494
	adds	r3, r3, #1
.LVL189:
.L168:
	.loc 1 154 31 discriminator 1 view .LVU495
	cmp	r3, #3
	ble	.L169
.LBE6:
	.loc 1 158 13 view .LVU496
	ldr	r0, .L176+20
	bl	usart_enable_tx_interrupt
.LVL190:
	.loc 1 159 13 view .LVU497
	b	.L144
.LVL191:
.L154:
	.loc 1 161 13 view .LVU498
	.loc 1 161 20 is_stmt 0 view .LVU499
	ldr	r3, .L176
	movs	r2, #3
	str	r2, [r3]
	.loc 1 162 13 is_stmt 1 view .LVU500
	ldr	r0, .L176+16
.LVL192:
	.loc 1 162 13 is_stmt 0 view .LVU501
	bl	circbuffer_queue
.LVL193:
	.loc 1 163 13 is_stmt 1 view .LVU502
	ldr	r0, .L176+20
	bl	usart_enable_tx_interrupt
.LVL194:
	.loc 1 164 13 view .LVU503
	b	.L144
.L177:
	.align	2
.L176:
	.word	myCase.2
	.word	.LC9
	.word	lastPeriod.1
	.word	period.0
	.word	circBufferOut
	.word	1073759232
	.cfi_endproc
.LFE24:
	.size	charHandler, .-charHandler
	.section	.text.main,"ax",%progbits
	.align	1
	.global	main
	.syntax unified
	.thumb
	.thumb_func
	.type	main, %function
main:
.LFB23:
	.loc 1 45 16 view -0
	.cfi_startproc
	@ Volatile: function does not return.
	@ args = 0, pretend = 0, frame = 8
	@ frame_needed = 0, uses_anonymous_args = 0
	push	{lr}
.LCFI32:
	.cfi_def_cfa_offset 4
	.cfi_offset 14, -4
	sub	sp, sp, #12
.LCFI33:
	.cfi_def_cfa_offset 16
	.loc 1 47 4 view .LVU505
	mov	r2, #1024
	ldr	r1, .L182
	ldr	r0, .L182+4
	bl	circbuffer_init
.LVL195:
	.loc 1 48 4 view .LVU506
	mov	r2, #1024
	ldr	r1, .L182+8
	ldr	r0, .L182+12
	bl	circbuffer_init
.LVL196:
	.loc 1 51 4 view .LVU507
	bl	clock_enable
.LVL197:
	.loc 1 52 4 view .LVU508
	bl	usart_setup
.LVL198:
	.loc 1 53 4 view .LVU509
	bl	timer_setup
.LVL199:
	.loc 1 55 4 view .LVU510
	mov	r0, #2432
	bl	rcc_periph_clock_enable
.LVL200:
	.loc 1 56 4 view .LVU511
	movw	r0, #2434
	bl	rcc_periph_clock_enable
.LVL201:
	.loc 1 57 4 view .LVU512
	movs	r3, #32
	movs	r2, #1
	mov	r1, r2
	mov	r0, #1207959552
	bl	gpio_mode_setup
.LVL202:
	.loc 1 58 4 view .LVU513
	mov	r3, #8192
	movs	r2, #1
	movs	r1, #0
	ldr	r0, .L182+16
	bl	gpio_mode_setup
.LVL203:
.L179:
	.loc 1 61 4 view .LVU514
	.loc 1 63 7 view .LVU515
	.loc 1 63 11 is_stmt 0 view .LVU516
	ldr	r0, .L182+4
	bl	bufferIsEmpty
.LVL204:
	.loc 1 63 9 view .LVU517
	cmp	r0, #0
	bne	.L179
.LBB7:
	.loc 1 65 13 is_stmt 1 view .LVU518
	.loc 1 65 18 is_stmt 0 view .LVU519
	movs	r3, #0
	strb	r3, [sp, #7]
	.loc 1 66 13 is_stmt 1 view .LVU520
	add	r1, sp, #7
	ldr	r0, .L182+4
	bl	circbuffer_dequeue
.LVL205:
	.loc 1 67 13 view .LVU521
	ldrb	r0, [sp, #7]	@ zero_extendqisi2
	bl	charHandler
.LVL206:
	b	.L179
.L183:
	.align	2
.L182:
	.word	bufferI
	.word	circBufferIn
	.word	bufferO
	.word	circBufferOut
	.word	1207961600
.LBE7:
	.cfi_endproc
.LFE23:
	.size	main, .-main
	.section	.data.period.0,"aw"
	.align	2
	.type	period.0, %object
	.size	period.0, 4
period.0:
	.ascii	"1000"
	.section	.data.lastPeriod.1,"aw"
	.align	2
	.type	lastPeriod.1, %object
	.size	lastPeriod.1, 4
lastPeriod.1:
	.ascii	"1000"
	.section	.bss.myCase.2,"aw",%nobits
	.align	2
	.type	myCase.2, %object
	.size	myCase.2, 4
myCase.2:
	.space	4
	.section	.bss.pos.3,"aw",%nobits
	.type	pos.3, %object
	.size	pos.3, 1
pos.3:
	.space	1
	.section	.bss.pos.4,"aw",%nobits
	.type	pos.4, %object
	.size	pos.4, 1
pos.4:
	.space	1
	.section	.rodata.__func__.5,"a"
	.align	2
	.type	__func__.5, %object
	.size	__func__.5, 16
__func__.5:
	.ascii	"circbuff_recent\000"
	.section	.rodata.__func__.6,"a"
	.align	2
	.type	__func__.6, %object
	.size	__func__.6, 12
__func__.6:
	.ascii	"backPointer\000"
	.section	.rodata.__func__.7,"a"
	.align	2
	.type	__func__.7, %object
	.size	__func__.7, 19
__func__.7:
	.ascii	"circbuffer_dequeue\000"
	.section	.rodata.__func__.8,"a"
	.align	2
	.type	__func__.8, %object
	.size	__func__.8, 15
__func__.8:
	.ascii	"advancePointer\000"
	.section	.rodata.__func__.9,"a"
	.align	2
	.type	__func__.9, %object
	.size	__func__.9, 17
__func__.9:
	.ascii	"circbuffer_queue\000"
	.section	.rodata.__func__.10,"a"
	.align	2
	.type	__func__.10, %object
	.size	__func__.10, 17
__func__.10:
	.ascii	"circbuff_entries\000"
	.section	.rodata.__func__.11,"a"
	.align	2
	.type	__func__.11, %object
	.size	__func__.11, 13
__func__.11:
	.ascii	"bufferIsFull\000"
	.section	.rodata.__func__.12,"a"
	.align	2
	.type	__func__.12, %object
	.size	__func__.12, 16
__func__.12:
	.ascii	"circbuffer_init\000"
	.section	.rodata.__func__.13,"a"
	.align	2
	.type	__func__.13, %object
	.size	__func__.13, 14
__func__.13:
	.ascii	"bufferIsEmpty\000"
	.section	.rodata.__func__.14,"a"
	.align	2
	.type	__func__.14, %object
	.size	__func__.14, 17
__func__.14:
	.ascii	"circbuffer_reset\000"
	.global	max
	.section	.rodata.max,"a"
	.align	2
	.type	max, %object
	.size	max, 4
max:
	.word	1024
	.global	globalPeriod
	.section	.data.globalPeriod,"aw"
	.align	1
	.type	globalPeriod, %object
	.size	globalPeriod, 2
globalPeriod:
	.short	1000
	.global	bufferO
	.section	.bss.bufferO,"aw",%nobits
	.align	2
	.type	bufferO, %object
	.size	bufferO, 256
bufferO:
	.space	256
	.global	bufferI
	.section	.bss.bufferI,"aw",%nobits
	.align	2
	.type	bufferI, %object
	.size	bufferI, 256
bufferI:
	.space	256
	.global	circBufferOut
	.section	.bss.circBufferOut,"aw",%nobits
	.align	2
	.type	circBufferOut, %object
	.size	circBufferOut, 8
circBufferOut:
	.space	8
	.global	circBufferIn
	.section	.bss.circBufferIn,"aw",%nobits
	.align	2
	.type	circBufferIn, %object
	.size	circBufferIn, 8
circBufferIn:
	.space	8
	.global	key
	.section	.rodata.key,"a"
	.align	2
	.type	key, %object
	.size	key, 21
key:
	.ascii	"BOLDFEARLESSCONFIDENT"
	.text
.Letext0:
	.file 4 "/usr/arm-none-eabi/include/machine/_default_types.h"
	.file 5 "/usr/arm-none-eabi/include/sys/_stdint.h"
	.file 6 "/home/tatew/libopencm3/include/libopencm3/stm32/l4/rcc.h"
	.file 7 "/home/tatew/libopencm3/include/libopencm3/stm32/common/usart_common_all.h"
	.file 8 "/home/tatew/libopencm3/include/libopencm3/stm32/common/gpio_common_all.h"
	.file 9 "/usr/arm-none-eabi/include/stdio.h"
	.file 10 "/home/tatew/libopencm3/include/libopencm3/stm32/common/timer_common_all.h"
	.file 11 "/home/tatew/libopencm3/include/libopencm3/stm32/common/rcc_common_all.h"
	.file 12 "/home/tatew/libopencm3/include/libopencm3/stm32/common/gpio_common_f234.h"
	.file 13 "/home/tatew/libopencm3/include/libopencm3/cm3/nvic.h"
	.file 14 "/usr/arm-none-eabi/include/assert.h"
	.file 15 "/usr/arm-none-eabi/include/sys/errno.h"