	.cpu cortex-m4
	.arch armv7e-m
	.fpu fpv4-sp-d16
	.eabi_attribute 27, 1
	.eabi_attribute 28, 1
	.eabi_attribute 20, 1
	.eabi_attribute 21, 1
	.eabi_attribute 23, 3
	.eabi_attribute 24, 1
	.eabi_attribute 25, 1
	.eabi_attribute 26, 1
	.eabi_attribute 30, 1
	.eabi_attribute 34, 1
	.eabi_attribute 18, 4
	.file	"m2a.c"
	.text
.Ltext0:
	.cfi_sections	.debug_frame
	.file 1 "src/m2a.c"
	.section	.rodata.advancePointer.str1.4,"aMS",%progbits,1
	.align	2
.LC0:
	.ascii	"myBuff\000"
	.align	2
.LC1:
	.ascii	"src/circbuffer.h\000"
	.section	.text.advancePointer,"ax",%progbits
	.align	1
	.syntax unified
	.thumb
	.thumb_func
	.type	advancePointer, %function
advancePointer:
.LVL0:
.LFB8:
	.file 2 "src/circbuffer.h"
	.loc 2 61 47 view -0
	.cfi_startproc
	@ args = 0, pretend = 0, frame = 0
	@ frame_needed = 0, uses_anonymous_args = 0
	.loc 2 61 47 is_stmt 0 view .LVU1
	push	{r3, lr}
.LCFI0:
	.cfi_def_cfa_offset 8
	.cfi_offset 3, -8
	.cfi_offset 14, -4
	.loc 2 62 4 is_stmt 1 view .LVU2
	.loc 2 62 16 is_stmt 0 view .LVU3
	cbz	r0, .L6
	mov	r3, r0
	.loc 2 64 5 is_stmt 1 view .LVU4
	.loc 2 64 14 is_stmt 0 view .LVU5
	ldrb	r2, [r0, #6]	@ zero_extendqisi2
	.loc 2 64 7 view .LVU6
	cbz	r2, .L3
	.loc 2 65 9 is_stmt 1 view .LVU7
	.loc 2 65 21 is_stmt 0 view .LVU8
	ldrb	r2, [r0, #4]	@ zero_extendqisi2
	.loc 2 65 12 view .LVU9
	adds	r2, r2, #1
	uxtb	r2, r2
	.loc 2 65 11 view .LVU10
	strb	r2, [r0, #4]
	.loc 2 65 43 view .LVU11
	ldrb	r1, [r0, #5]	@ zero_extendqisi2
	.loc 2 65 11 view .LVU12
	cmp	r2, r1
	beq	.L7
.L3:
	.loc 2 70 5 is_stmt 1 view .LVU13
	.loc 2 70 17 is_stmt 0 view .LVU14
	ldrb	r2, [r3, #4]	@ zero_extendqisi2
	.loc 2 70 8 view .LVU15
	adds	r2, r2, #1
	uxtb	r2, r2
	.loc 2 70 7 view .LVU16
	strb	r2, [r3, #4]
	.loc 2 70 39 view .LVU17
	ldrb	r1, [r3, #7]	@ zero_extendqisi2
	.loc 2 70 7 view .LVU18
	cmp	r2, r1
	beq	.L8
.L4:
	.loc 2 74 5 is_stmt 1 view .LVU19
	.loc 2 74 29 is_stmt 0 view .LVU20
	ldrb	r2, [r3, #4]	@ zero_extendqisi2
	.loc 2 74 50 view .LVU21
	ldrb	r1, [r3, #5]	@ zero_extendqisi2
	.loc 2 74 41 view .LVU22
	cmp	r2, r1
	ite	ne
	movne	r2, #0
	moveq	r2, #1
	.loc 2 74 20 view .LVU23
	strb	r2, [r3, #6]
	.loc 2 75 1 view .LVU24
	pop	{r3, pc}
.L6:
	.loc 2 62 18 discriminator 1 view .LVU25
	ldr	r3, .L9
	ldr	r2, .L9+4
	movs	r1, #62
	ldr	r0, .L9+8
.LVL1:
	.loc 2 62 18 discriminator 1 view .LVU26
	bl	__assert_func
.LVL2:
.L7:
	.loc 2 66 13 is_stmt 1 view .LVU27
	.loc 2 66 31 is_stmt 0 view .LVU28
	movs	r2, #0
	strb	r2, [r0, #5]
	b	.L3
.L8:
	.loc 2 71 9 is_stmt 1 view .LVU29
	.loc 2 71 27 is_stmt 0 view .LVU30
	movs	r2, #0
	strb	r2, [r3, #4]
	b	.L4
.L10:
	.align	2
.L9:
	.word	.LC0
	.word	__func__.7
	.word	.LC1
	.cfi_endproc
.LFE8:
	.size	advancePointer, .-advancePointer
	.section	.text.backPointer,"ax",%progbits
	.align	1
	.syntax unified
	.thumb
	.thumb_func
	.type	backPointer, %function
backPointer:
.LVL3:
.LFB9:
	.loc 2 77 44 is_stmt 1 view -0
	.cfi_startproc
	@ args = 0, pretend = 0, frame = 0
	@ frame_needed = 0, uses_anonymous_args = 0
	.loc 2 77 44 is_stmt 0 view .LVU32
	push	{r3, lr}
.LCFI1:
	.cfi_def_cfa_offset 8
	.cfi_offset 3, -8
	.cfi_offset 14, -4
	.loc 2 78 4 is_stmt 1 view .LVU33
	.loc 2 78 16 is_stmt 0 view .LVU34
	cbz	r0, .L15
	.loc 2 80 5 is_stmt 1 view .LVU35
	.loc 2 80 20 is_stmt 0 view .LVU36
	movs	r3, #0
	strb	r3, [r0, #6]
	.loc 2 82 5 is_stmt 1 view .LVU37
	.loc 2 82 17 is_stmt 0 view .LVU38
	ldrb	r3, [r0, #5]	@ zero_extendqisi2
	.loc 2 82 8 view .LVU39
	adds	r3, r3, #1
	uxtb	r3, r3
	.loc 2 82 7 view .LVU40
	strb	r3, [r0, #5]
	.loc 2 82 39 view .LVU41
	ldrb	r1, [r0, #7]	@ zero_extendqisi2
	.loc 2 82 7 view .LVU42
	cmp	r3, r1
	beq	.L16
.L11:
	.loc 2 85 1 view .LVU43
	pop	{r3, pc}
.L15:
	.loc 2 78 18 discriminator 1 view .LVU44
	ldr	r3, .L17
	ldr	r2, .L17+4
	movs	r1, #78
	ldr	r0, .L17+8
.LVL4:
	.loc 2 78 18 discriminator 1 view .LVU45
	bl	__assert_func
.LVL5:
.L16:
	.loc 2 83 9 is_stmt 1 view .LVU46
	.loc 2 83 27 is_stmt 0 view .LVU47
	movs	r3, #0
	strb	r3, [r0, #5]
	.loc 2 85 1 view .LVU48
	b	.L11
.L18:
	.align	2
.L17:
	.word	.LC0
	.word	__func__.5
	.word	.LC1
	.cfi_endproc
.LFE9:
	.size	backPointer, .-backPointer
	.section	.text.clock_enable,"ax",%progbits
	.align	1
	.syntax unified
	.thumb
	.thumb_func
	.type	clock_enable, %function
clock_enable:
.LFB13:
	.file 3 "src/embsysS20.h"
	.loc 3 53 31 is_stmt 1 view -0
	.cfi_startproc
	@ args = 0, pretend = 0, frame = 0
	@ frame_needed = 0, uses_anonymous_args = 0
	push	{r4, lr}
.LCFI2:
	.cfi_def_cfa_offset 8
	.cfi_offset 4, -8
	.cfi_offset 14, -4
	sub	sp, sp, #8
.LCFI3:
	.cfi_def_cfa_offset 16
	.loc 3 55 5 view .LVU50
	movs	r0, #2
	bl	rcc_osc_on
.LVL6:
	.loc 3 58 2 view .LVU51
	movs	r4, #0
	str	r4, [sp, #4]
	str	r4, [sp]
	mov	r3, r4
	movs	r2, #20
	movs	r1, #4
	movs	r0, #2
	bl	rcc_set_main_pll
.LVL7:
	.loc 3 59 2 view .LVU52
	mov	r0, r4
	bl	rcc_osc_on
.LVL8:
	.loc 3 60 1 is_stmt 0 view .LVU53
	add	sp, sp, #8
.LCFI4:
	.cfi_def_cfa_offset 8
	@ sp needed
	pop	{r4, pc}
	.cfi_endproc
.LFE13:
	.size	clock_enable, .-clock_enable
	.section	.text.usart_setup,"ax",%progbits
	.align	1
	.syntax unified
	.thumb
	.thumb_func
	.type	usart_setup, %function
usart_setup:
.LFB19:
	.loc 1 80 1 is_stmt 1 view -0
	.cfi_startproc
	@ args = 0, pretend = 0, frame = 0
	@ frame_needed = 0, uses_anonymous_args = 0
	push	{r4, lr}
.LCFI5:
	.cfi_def_cfa_offset 8
	.cfi_offset 4, -8
	.cfi_offset 14, -4
	.loc 1 82 4 view .LVU55
	mov	r0, #2432
	bl	rcc_periph_clock_enable
.LVL9:
	.loc 1 83 4 view .LVU56
	movw	r0, #2833
	bl	rcc_periph_clock_enable
.LVL10:
	.loc 1 87 2 view .LVU57
	movs	r3, #4
	movs	r2, #0
	movs	r1, #2
	mov	r0, #1207959552
	bl	gpio_mode_setup
.LVL11:
	.loc 1 89 4 view .LVU58
	movs	r3, #8
	movs	r2, #0
	movs	r1, #2
	mov	r0, #1207959552
	bl	gpio_mode_setup
.LVL12:
	.loc 1 90 4 view .LVU59
	movs	r3, #8
	movs	r2, #1
	mov	r1, r2
	mov	r0, #1207959552
	bl	gpio_set_output_options
.LVL13:
	.loc 1 93 2 view .LVU60
	movs	r2, #4
	movs	r1, #7
	mov	r0, #1207959552
	bl	gpio_set_af
.LVL14:
	.loc 1 94 4 view .LVU61
	movs	r2, #8
	movs	r1, #7
	mov	r0, #1207959552
	bl	gpio_set_af
.LVL15:
	.loc 1 98 2 view .LVU62
	ldr	r4, .L23
	mov	r1, #57600
	mov	r0, r4
	bl	usart_set_baudrate
.LVL16:
	.loc 1 99 2 view .LVU63
	movs	r1, #9
	mov	r0, r4
	bl	usart_set_databits
.LVL17:
	.loc 1 100 2 view .LVU64
	movs	r1, #0
	mov	r0, r4
	bl	usart_set_stopbits
.LVL18:
	.loc 1 101 2 view .LVU65
	movs	r1, #12
	mov	r0, r4
	bl	usart_set_mode
.LVL19:
	.loc 1 102 2 view .LVU66
	mov	r1, #1536
	mov	r0, r4
	bl	usart_set_parity
.LVL20:
	.loc 1 103 2 view .LVU67
	movs	r1, #0
	mov	r0, r4
	bl	usart_set_flow_control
.LVL21:
	.loc 1 107 4 view .LVU68
	mov	r0, r4
	bl	usart_enable
.LVL22:
	.loc 1 109 1 is_stmt 0 view .LVU69
	pop	{r4, pc}
.L24:
	.align	2
.L23:
	.word	1073759232
	.cfi_endproc
.LFE19:
	.size	usart_setup, .-usart_setup
	.section	.text.timer_setup,"ax",%progbits
	.align	1
	.syntax unified
	.thumb
	.thumb_func
	.type	timer_setup, %function
timer_setup:
.LFB20:
	.loc 1 112 1 is_stmt 1 view -0
	.cfi_startproc
	@ args = 0, pretend = 0, frame = 0
	@ frame_needed = 0, uses_anonymous_args = 0
	push	{r3, lr}
.LCFI6:
	.cfi_def_cfa_offset 8
	.cfi_offset 3, -8
	.cfi_offset 14, -4
	.loc 1 114 4 view .LVU71
	mov	r0, #2816
	bl	rcc_periph_clock_enable
.LVL23:
	.loc 1 115 4 view .LVU72
	mov	r0, #1792
	bl	rcc_periph_reset_pulse
.LVL24:
	.loc 1 120 4 view .LVU73
	movs	r1, #200
	mov	r0, #1073741824
	bl	timer_set_prescaler
.LVL25:
	.loc 1 122 4 view .LVU74
	movw	r1, #10000
	mov	r0, #1073741824
	bl	timer_set_period
.LVL26:
	.loc 1 123 4 view .LVU75
	mov	r0, #1073741824
	bl	timer_enable_counter
.LVL27:
	.loc 1 125 1 is_stmt 0 view .LVU76
	pop	{r3, pc}
	.cfi_endproc
.LFE20:
	.size	timer_setup, .-timer_setup
	.section	.text.circbuffer_reset,"ax",%progbits
	.align	1
	.global	circbuffer_reset
	.syntax unified
	.thumb
	.thumb_func
	.type	circbuffer_reset, %function
circbuffer_reset:
.LVL28:
.LFB3:
	.loc 2 15 42 is_stmt 1 view -0
	.cfi_startproc
	@ args = 0, pretend = 0, frame = 0
	@ frame_needed = 0, uses_anonymous_args = 0
	.loc 2 15 42 is_stmt 0 view .LVU78
	push	{r3, lr}
.LCFI7:
	.cfi_def_cfa_offset 8
	.cfi_offset 3, -8
	.cfi_offset 14, -4
	.loc 2 16 4 is_stmt 1 view .LVU79
	.loc 2 16 16 is_stmt 0 view .LVU80
	cbz	r0, .L30
	.loc 2 18 5 is_stmt 1 view .LVU81
	.loc 2 18 23 is_stmt 0 view .LVU82
	movs	r2, #0
	strb	r2, [r0, #4]
	.loc 2 19 5 is_stmt 1 view .LVU83
	.loc 2 19 23 is_stmt 0 view .LVU84
	strb	r2, [r0, #5]
	.loc 2 20 5 is_stmt 1 view .LVU85
	.loc 2 20 20 is_stmt 0 view .LVU86
	strb	r2, [r0, #6]
	.loc 2 21 1 view .LVU87
	pop	{r3, pc}
.L30:
	.loc 2 16 18 discriminator 1 view .LVU88
	ldr	r3, .L31
	ldr	r2, .L31+4
	movs	r1, #16
	ldr	r0, .L31+8
.LVL29:
	.loc 2 16 18 discriminator 1 view .LVU89
	bl	__assert_func
.LVL30:
.L32:
	.align	2
.L31:
	.word	.LC0
	.word	__func__.13
	.word	.LC1
	.cfi_endproc
.LFE3:
	.size	circbuffer_reset, .-circbuffer_reset
	.section	.text.bufferIsEmpty,"ax",%progbits
	.align	1
	.global	bufferIsEmpty
	.syntax unified
	.thumb
	.thumb_func
	.type	bufferIsEmpty, %function
bufferIsEmpty:
.LVL31:
.LFB4:
	.loc 2 23 39 is_stmt 1 view -0
	.cfi_startproc
	@ args = 0, pretend = 0, frame = 0
	@ frame_needed = 0, uses_anonymous_args = 0
	.loc 2 23 39 is_stmt 0 view .LVU91
	push	{r3, lr}
.LCFI8:
	.cfi_def_cfa_offset 8
	.cfi_offset 3, -8
	.cfi_offset 14, -4
	.loc 2 24 4 is_stmt 1 view .LVU92
	.loc 2 24 16 is_stmt 0 view .LVU93
	cbz	r0, .L39
	.loc 2 26 5 is_stmt 1 view .LVU94
	.loc 2 26 19 is_stmt 0 view .LVU95
	ldrb	r2, [r0, #6]	@ zero_extendqisi2
	.loc 2 26 28 view .LVU96
	cbnz	r2, .L36
	.loc 2 26 38 discriminator 1 view .LVU97
	ldrb	r2, [r0, #4]	@ zero_extendqisi2
	.loc 2 26 59 discriminator 1 view .LVU98
	ldrb	r3, [r0, #5]	@ zero_extendqisi2
	.loc 2 26 28 discriminator 1 view .LVU99
	cmp	r2, r3
	beq	.L37
	.loc 2 26 28 view .LVU100
	movs	r0, #0
.LVL32:
	.loc 2 26 28 view .LVU101
	b	.L35
.LVL33:
.L39:
	.loc 2 24 18 discriminator 1 view .LVU102
	ldr	r3, .L40
	ldr	r2, .L40+4
	movs	r1, #24
	ldr	r0, .L40+8
.LVL34:
	.loc 2 24 18 discriminator 1 view .LVU103
	bl	__assert_func
.LVL35:
.L36:
	.loc 2 26 28 view .LVU104
	movs	r0, #0
.LVL36:
.L35:
	.loc 2 27 1 discriminator 6 view .LVU105
	pop	{r3, pc}
.LVL37:
.L37:
	.loc 2 26 28 view .LVU106
	movs	r0, #1
.LVL38:
	.loc 2 26 28 view .LVU107
	b	.L35
.L41:
	.align	2
.L40:
	.word	.LC0
	.word	__func__.12
	.word	.LC1
	.cfi_endproc
.LFE4:
	.size	bufferIsEmpty, .-bufferIsEmpty
	.section	.rodata.circbuffer_init.str1.4,"aMS",%progbits,1
	.align	2
.LC2:
	.ascii	"myBuff && buff && size\000"
	.align	2
.LC3:
	.ascii	"bufferIsEmpty(myBuff)\000"
	.section	.text.circbuffer_init,"ax",%progbits
	.align	1
	.global	circbuffer_init
	.syntax unified
	.thumb
	.thumb_func
	.type	circbuffer_init, %function
circbuffer_init:
.LVL39:
.LFB5:
	.loc 2 29 63 is_stmt 1 view -0
	.cfi_startproc
	@ args = 0, pretend = 0, frame = 0
	@ frame_needed = 0, uses_anonymous_args = 0
	.loc 2 29 63 is_stmt 0 view .LVU109
	push	{r4, lr}
.LCFI9:
	.cfi_def_cfa_offset 8
	.cfi_offset 4, -8
	.cfi_offset 14, -4
	.loc 2 30 4 is_stmt 1 view .LVU110
	.loc 2 30 16 is_stmt 0 view .LVU111
	cbz	r0, .L43
	mov	r4, r0
	.loc 2 30 11 discriminator 2 view .LVU112
	cbz	r1, .L43
	.loc 2 30 19 discriminator 4 view .LVU113
	cbz	r2, .L43
	.loc 2 32 5 is_stmt 1 view .LVU114
	.loc 2 32 20 is_stmt 0 view .LVU115
	str	r1, [r0]
	.loc 2 33 5 is_stmt 1 view .LVU116
	.loc 2 33 17 is_stmt 0 view .LVU117
	strb	r2, [r0, #7]
	.loc 2 34 5 is_stmt 1 view .LVU118
	bl	circbuffer_reset
.LVL40:
	.loc 2 36 4 view .LVU119
	.loc 2 36 4 is_stmt 0 view .LVU120
	mov	r0, r4
	bl	bufferIsEmpty
.LVL41:
	.loc 2 36 16 view .LVU121
	cbz	r0, .L47
	.loc 2 37 1 view .LVU122
	pop	{r4, pc}
.LVL42:
.L43:
	.loc 2 30 18 discriminator 5 view .LVU123
	ldr	r3, .L48
	ldr	r2, .L48+4
.LVL43:
	.loc 2 30 18 discriminator 5 view .LVU124
	movs	r1, #30
.LVL44:
	.loc 2 30 18 discriminator 5 view .LVU125
	ldr	r0, .L48+8
.LVL45:
	.loc 2 30 18 discriminator 5 view .LVU126
	bl	__assert_func
.LVL46:
.L47:
	.loc 2 36 18 discriminator 1 view .LVU127
	ldr	r3, .L48+12
	ldr	r2, .L48+4
	movs	r1, #36
	ldr	r0, .L48+8
	bl	__assert_func
.LVL47:
.L49:
	.align	2
.L48:
	.word	.LC2
	.word	__func__.11
	.word	.LC1
	.word	.LC3
	.cfi_endproc
.LFE5:
	.size	circbuffer_init, .-circbuffer_init
	.section	.text.bufferIsFull,"ax",%progbits
	.align	1
	.global	bufferIsFull
	.syntax unified
	.thumb
	.thumb_func
	.type	bufferIsFull, %function
bufferIsFull:
.LVL48:
.LFB6:
	.loc 2 39 37 is_stmt 1 view -0
	.cfi_startproc
	@ args = 0, pretend = 0, frame = 0
	@ frame_needed = 0, uses_anonymous_args = 0
	.loc 2 39 37 is_stmt 0 view .LVU129
	push	{r3, lr}
.LCFI10:
	.cfi_def_cfa_offset 8
	.cfi_offset 3, -8
	.cfi_offset 14, -4
	.loc 2 40 4 is_stmt 1 view .LVU130
	.loc 2 40 16 is_stmt 0 view .LVU131
	cbz	r0, .L53
	.loc 2 41 5 is_stmt 1 view .LVU132
	.loc 2 42 1 is_stmt 0 view .LVU133
	ldrb	r0, [r0, #6]	@ zero_extendqisi2
.LVL49:
	.loc 2 42 1 view .LVU134
	pop	{r3, pc}
.LVL50:
.L53:
	.loc 2 40 18 discriminator 1 view .LVU135
	ldr	r3, .L54
	ldr	r2, .L54+4
	movs	r1, #40
	ldr	r0, .L54+8
.LVL51:
	.loc 2 40 18 discriminator 1 view .LVU136
	bl	__assert_func
.LVL52:
.L55:
	.align	2
.L54:
	.word	.LC0
	.word	__func__.10
	.word	.LC1
	.cfi_endproc
.LFE6:
	.size	bufferIsFull, .-bufferIsFull
	.section	.text.circbuff_entries,"ax",%progbits
	.align	1
	.global	circbuff_entries
	.syntax unified
	.thumb
	.thumb_func
	.type	circbuff_entries, %function
circbuff_entries:
.LVL53:
.LFB7:
	.loc 2 44 45 is_stmt 1 view -0
	.cfi_startproc
	@ args = 0, pretend = 0, frame = 0
	@ frame_needed = 0, uses_anonymous_args = 0
	.loc 2 44 45 is_stmt 0 view .LVU138
	push	{r3, lr}
.LCFI11:
	.cfi_def_cfa_offset 8
	.cfi_offset 3, -8
	.cfi_offset 14, -4
	.loc 2 45 4 is_stmt 1 view .LVU139
	.loc 2 45 16 is_stmt 0 view .LVU140
	cbz	r0, .L61
	mov	r3, r0
	.loc 2 47 2 is_stmt 1 view .LVU141
	.loc 2 47 10 is_stmt 0 view .LVU142
	ldrb	r0, [r0, #7]	@ zero_extendqisi2
.LVL54:
	.loc 2 49 2 is_stmt 1 view .LVU143
	.loc 2 49 12 is_stmt 0 view .LVU144
	ldrb	r2, [r3, #6]	@ zero_extendqisi2
	.loc 2 49 4 view .LVU145
	cbnz	r2, .L58
	.loc 2 51 6 is_stmt 1 view .LVU146
	.loc 2 51 15 is_stmt 0 view .LVU147
	ldrb	r2, [r3, #4]	@ zero_extendqisi2
	.loc 2 51 36 view .LVU148
	ldrb	r3, [r3, #5]	@ zero_extendqisi2
.LVL55:
	.loc 2 51 8 view .LVU149
	cmp	r2, r3
	bcc	.L59
	.loc 2 52 4 is_stmt 1 view .LVU150
	.loc 2 52 9 is_stmt 0 view .LVU151
	subs	r2, r2, r3
	uxtb	r0, r2
.LVL56:
.L58:
	.loc 2 57 5 is_stmt 1 view .LVU152
	.loc 2 58 1 is_stmt 0 view .LVU153
	pop	{r3, pc}
.LVL57:
.L61:
	.loc 2 45 18 discriminator 1 view .LVU154
	ldr	r3, .L62
	ldr	r2, .L62+4
	movs	r1, #45
	ldr	r0, .L62+8
.LVL58:
	.loc 2 45 18 discriminator 1 view .LVU155
	bl	__assert_func
.LVL59:
.L59:
	.loc 2 54 4 is_stmt 1 view .LVU156
	.loc 2 54 23 is_stmt 0 view .LVU157
	add	r0, r0, r2
.LVL60:
	.loc 2 54 23 view .LVU158
	uxtb	r0, r0
	.loc 2 54 9 view .LVU159
	subs	r0, r0, r3
	uxtb	r0, r0
.LVL61:
	.loc 2 54 9 view .LVU160
	b	.L58
.L63:
	.align	2
.L62:
	.word	.LC0
	.word	__func__.9
	.word	.LC1
	.cfi_endproc
.LFE7:
	.size	circbuff_entries, .-circbuff_entries
	.section	.rodata.circbuffer_queue.str1.4,"aMS",%progbits,1
	.align	2
.LC4:
	.ascii	"myBuff && myBuff->buffer\000"
	.section	.text.circbuffer_queue,"ax",%progbits
	.align	1
	.global	circbuffer_queue
	.syntax unified
	.thumb
	.thumb_func
	.type	circbuffer_queue, %function
circbuffer_queue:
.LVL62:
.LFB10:
	.loc 2 87 53 is_stmt 1 view -0
	.cfi_startproc
	@ args = 0, pretend = 0, frame = 0
	@ frame_needed = 0, uses_anonymous_args = 0
	.loc 2 87 53 is_stmt 0 view .LVU162
	push	{r3, lr}
.LCFI12:
	.cfi_def_cfa_offset 8
	.cfi_offset 3, -8
	.cfi_offset 14, -4
	.loc 2 88 4 is_stmt 1 view .LVU163
	.loc 2 88 16 is_stmt 0 view .LVU164
	cbz	r0, .L65
	mov	r3, r0
	.loc 2 88 20 discriminator 2 view .LVU165
	ldr	r2, [r0]
	.loc 2 88 11 discriminator 2 view .LVU166
	cbz	r2, .L65
	.loc 2 90 5 is_stmt 1 view .LVU167
	.loc 2 90 26 is_stmt 0 view .LVU168
	ldrb	r0, [r0, #4]	@ zero_extendqisi2
.LVL63:
	.loc 2 90 39 view .LVU169
	strb	r1, [r2, r0]
	.loc 2 92 5 is_stmt 1 view .LVU170
	mov	r0, r3
	bl	advancePointer
.LVL64:
	.loc 2 93 1 is_stmt 0 view .LVU171
	pop	{r3, pc}
.LVL65:
.L65:
	.loc 2 88 18 discriminator 3 view .LVU172
	ldr	r3, .L68
	ldr	r2, .L68+4
	movs	r1, #88
.LVL66:
	.loc 2 88 18 discriminator 3 view .LVU173
	ldr	r0, .L68+8
.LVL67:
	.loc 2 88 18 discriminator 3 view .LVU174
	bl	__assert_func
.LVL68:
.L69:
	.align	2
.L68:
	.word	.LC4
	.word	__func__.8
	.word	.LC1
	.cfi_endproc
.LFE10:
	.size	circbuffer_queue, .-circbuffer_queue
	.section	.rodata.circbuffer_dequeue.str1.4,"aMS",%progbits,1
	.align	2
.LC5:
	.ascii	"data\000"
	.align	2
.LC6:
	.ascii	"myBuff->buffer\000"
	.section	.text.circbuffer_dequeue,"ax",%progbits
	.align	1
	.global	circbuffer_dequeue
	.syntax unified
	.thumb
	.thumb_func
	.type	circbuffer_dequeue, %function
circbuffer_dequeue:
.LVL69:
.LFB11:
	.loc 2 95 55 is_stmt 1 view -0
	.cfi_startproc
	@ args = 0, pretend = 0, frame = 0
	@ frame_needed = 0, uses_anonymous_args = 0
	.loc 2 95 55 is_stmt 0 view .LVU176
	push	{r4, r5, r6, lr}
.LCFI13:
	.cfi_def_cfa_offset 16
	.cfi_offset 4, -16
	.cfi_offset 5, -12
	.cfi_offset 6, -8
	.cfi_offset 14, -4
	.loc 2 96 4 is_stmt 1 view .LVU177
	.loc 2 96 16 is_stmt 0 view .LVU178
	cbz	r0, .L77
	mov	r4, r1
	mov	r5, r0
	.loc 2 97 4 is_stmt 1 view .LVU179
	.loc 2 97 16 is_stmt 0 view .LVU180
	cbz	r1, .L78
	.loc 2 98 4 is_stmt 1 view .LVU181
	.loc 2 98 10 is_stmt 0 view .LVU182
	ldr	r6, [r0]
	.loc 2 98 16 view .LVU183
	cbz	r6, .L79
	.loc 2 100 4 is_stmt 1 view .LVU184
.LVL70:
	.loc 2 102 5 view .LVU185
	.loc 2 102 9 is_stmt 0 view .LVU186
	bl	bufferIsEmpty
.LVL71:
	.loc 2 102 7 view .LVU187
	cbz	r0, .L80
	.loc 2 100 9 view .LVU188
	movs	r0, #0
.LVL72:
.L74:
	.loc 2 108 5 is_stmt 1 view .LVU189
	.loc 2 109 1 is_stmt 0 view .LVU190
	pop	{r4, r5, r6, pc}
.LVL73:
.L77:
	.loc 2 96 18 discriminator 1 view .LVU191
	ldr	r3, .L81
	ldr	r2, .L81+4
	movs	r1, #96
.LVL74:
	.loc 2 96 18 discriminator 1 view .LVU192
	ldr	r0, .L81+8
.LVL75:
	.loc 2 96 18 discriminator 1 view .LVU193
	bl	__assert_func
.LVL76:
.L78:
	.loc 2 97 18 discriminator 1 view .LVU194
	ldr	r3, .L81+12
	ldr	r2, .L81+4
	movs	r1, #97
.LVL77:
	.loc 2 97 18 discriminator 1 view .LVU195
	ldr	r0, .L81+8
.LVL78:
	.loc 2 97 18 discriminator 1 view .LVU196
	bl	__assert_func
.LVL79:
.L79:
	.loc 2 98 18 discriminator 1 view .LVU197
	ldr	r3, .L81+16
	ldr	r2, .L81+4
	movs	r1, #98
.LVL80:
	.loc 2 98 18 discriminator 1 view .LVU198
	ldr	r0, .L81+8
.LVL81:
	.loc 2 98 18 discriminator 1 view .LVU199
	bl	__assert_func
.LVL82:
.L80:
	.loc 2 103 9 is_stmt 1 view .LVU200
	.loc 2 103 38 is_stmt 0 view .LVU201
	ldrb	r3, [r5, #5]	@ zero_extendqisi2
	.loc 2 103 31 view .LVU202
	ldrb	r3, [r6, r3]	@ zero_extendqisi2
	.loc 2 103 15 view .LVU203
	strb	r3, [r4]
	.loc 2 104 9 is_stmt 1 view .LVU204
	mov	r0, r5
	bl	backPointer
.LVL83:
	.loc 2 105 9 view .LVU205
	.loc 2 105 11 is_stmt 0 view .LVU206
	movs	r0, #1
	b	.L74
.L82:
	.align	2
.L81:
	.word	.LC0
	.word	__func__.6
	.word	.LC1
	.word	.LC5
	.word	.LC6
	.cfi_endproc
.LFE11:
	.size	circbuffer_dequeue, .-circbuffer_dequeue
	.section	.rodata.circbuff_recent.str1.4,"aMS",%progbits,1
	.align	2
.LC7:
	.ascii	"myBuff && data && myBuff->buffer\000"
	.section	.text.circbuff_recent,"ax",%progbits
	.align	1
	.global	circbuff_recent
	.syntax unified
	.thumb
	.thumb_func
	.type	circbuff_recent, %function
circbuff_recent:
.LVL84:
.LFB12:
	.loc 2 111 52 is_stmt 1 view -0
	.cfi_startproc
	@ args = 0, pretend = 0, frame = 0
	@ frame_needed = 0, uses_anonymous_args = 0
	.loc 2 111 52 is_stmt 0 view .LVU208
	push	{r4, r5, r6, lr}
.LCFI14:
	.cfi_def_cfa_offset 16
	.cfi_offset 4, -16
	.cfi_offset 5, -12
	.cfi_offset 6, -8
	.cfi_offset 14, -4
	.loc 2 112 4 is_stmt 1 view .LVU209
	.loc 2 112 16 is_stmt 0 view .LVU210
	cbz	r0, .L84
	mov	r4, r1
	mov	r6, r0
	.loc 2 112 11 discriminator 2 view .LVU211
	cbz	r1, .L84
	.loc 2 112 28 discriminator 4 view .LVU212
	ldr	r5, [r0]
	.loc 2 112 19 discriminator 4 view .LVU213
	cbz	r5, .L84
	.loc 2 114 4 is_stmt 1 view .LVU214
.LVL85:
	.loc 2 116 5 view .LVU215
	.loc 2 116 9 is_stmt 0 view .LVU216
	bl	bufferIsEmpty
.LVL86:
	.loc 2 116 7 view .LVU217
	cbnz	r0, .L88
	.loc 2 118 9 is_stmt 1 view .LVU218
	.loc 2 118 18 is_stmt 0 view .LVU219
	ldrb	r3, [r6, #4]	@ zero_extendqisi2
	.loc 2 118 11 view .LVU220
	cbnz	r3, .L87
	.loc 2 119 13 is_stmt 1 view .LVU221
	.loc 2 119 40 is_stmt 0 view .LVU222
	ldrb	r3, [r6, #7]	@ zero_extendqisi2
	.loc 2 119 47 view .LVU223
	subs	r3, r3, #1
	uxtb	r3, r3
	.loc 2 119 31 view .LVU224
	strb	r3, [r6, #4]
	.loc 2 120 13 is_stmt 1 view .LVU225
	.loc 2 120 35 is_stmt 0 view .LVU226
	ldrb	r3, [r5, r3]	@ zero_extendqisi2
	.loc 2 120 19 view .LVU227
	strb	r3, [r4]
	.loc 2 121 13 is_stmt 1 view .LVU228
.LVL87:
	.loc 2 121 15 is_stmt 0 view .LVU229
	movs	r0, #1
	b	.L86
.LVL88:
.L84:
	.loc 2 112 18 discriminator 5 view .LVU230
	ldr	r3, .L90
	ldr	r2, .L90+4
	movs	r1, #112
.LVL89:
	.loc 2 112 18 discriminator 5 view .LVU231
	ldr	r0, .L90+8
.LVL90:
	.loc 2 112 18 discriminator 5 view .LVU232
	bl	__assert_func
.LVL91:
.L87:
	.loc 2 124 13 is_stmt 1 view .LVU233
	.loc 2 124 36 is_stmt 0 view .LVU234
	subs	r3, r3, #1
	uxtb	r3, r3
	.loc 2 124 19 view .LVU235
	strb	r3, [r6, #4]
	.loc 2 124 35 view .LVU236
	ldrb	r3, [r5, r3]	@ zero_extendqisi2
	.loc 2 124 19 view .LVU237
	strb	r3, [r4]
	.loc 2 125 13 is_stmt 1 view .LVU238
.LVL92:
	.loc 2 125 15 is_stmt 0 view .LVU239
	movs	r0, #1
	b	.L86
.LVL93:
.L88:
	.loc 2 114 9 view .LVU240
	movs	r0, #0
.LVL94:
.L86:
	.loc 2 129 5 is_stmt 1 view .LVU241
	.loc 2 130 1 is_stmt 0 view .LVU242
	pop	{r4, r5, r6, pc}
.LVL95:
.L91:
	.loc 2 130 1 view .LVU243
	.align	2
.L90:
	.word	.LC7
	.word	__func__.4
	.word	.LC1
	.cfi_endproc
.LFE12:
	.size	circbuff_recent, .-circbuff_recent
	.section	.text._write,"ax",%progbits
	.align	1
	.global	_write
	.syntax unified
	.thumb
	.thumb_func
	.type	_write, %function
_write:
.LVL96:
.LFB14:
	.loc 1 24 41 is_stmt 1 view -0
	.cfi_startproc
	@ args = 0, pretend = 0, frame = 0
	@ frame_needed = 0, uses_anonymous_args = 0
	.loc 1 24 41 is_stmt 0 view .LVU245
	push	{r3, r4, r5, r6, r7, lr}
.LCFI15:
	.cfi_def_cfa_offset 24
	.cfi_offset 3, -24
	.cfi_offset 4, -20
	.cfi_offset 5, -16
	.cfi_offset 6, -12
	.cfi_offset 7, -8
	.cfi_offset 14, -4
	.loc 1 25 5 is_stmt 1 view .LVU246
	.loc 1 27 5 view .LVU247
	.loc 1 27 30 is_stmt 0 view .LVU248
	subs	r0, r0, #1
.LVL97:
	.loc 1 27 8 view .LVU249
	cmp	r0, #1
	bhi	.L101
	mov	r5, r1
	mov	r7, r2
	.loc 1 28 12 view .LVU250
	movs	r4, #0
	b	.L93
.LVL98:
.L95:
	.loc 1 32 7 is_stmt 1 discriminator 2 view .LVU251
	ldrb	r1, [r6]	@ zero_extendqisi2
	ldr	r0, .L102
	bl	usart_send_blocking
.LVL99:
	.loc 1 28 27 discriminator 2 view .LVU252
	adds	r4, r4, #1
.LVL100:
.L93:
	.loc 1 28 19 discriminator 1 view .LVU253
	cmp	r4, r7
	bge	.L92
	.loc 1 29 7 view .LVU254
	.loc 1 29 13 is_stmt 0 view .LVU255
	adds	r6, r5, r4
	ldrb	r3, [r5, r4]	@ zero_extendqisi2
	.loc 1 29 9 view .LVU256
	cmp	r3, #10
	bne	.L95
	.loc 1 30 8 is_stmt 1 view .LVU257
	movs	r1, #13
	ldr	r0, .L102
	bl	usart_send_blocking
.LVL101:
	b	.L95
.LVL102:
.L101:
	.loc 1 38 4 view .LVU258
	.loc 1 38 6 is_stmt 0 view .LVU259
	bl	__errno
.LVL103:
	.loc 1 38 10 view .LVU260
	movs	r3, #5
	str	r3, [r0]
	.loc 1 39 5 is_stmt 1 view .LVU261
	.loc 1 39 12 is_stmt 0 view .LVU262
	mov	r4, #-1
.L92:
	.loc 1 40 1 view .LVU263
	mov	r0, r4
	pop	{r3, r4, r5, r6, r7, pc}
.L103:
	.align	2
.L102:
	.word	1073759232
	.cfi_endproc
.LFE14:
	.size	_write, .-_write
	.section	.text.convertCaps,"ax",%progbits
	.align	1
	.global	convertCaps
	.syntax unified
	.thumb
	.thumb_func
	.type	convertCaps, %function
convertCaps:
.LVL104:
.LFB15:
	.loc 1 42 34 is_stmt 1 view -0
	.cfi_startproc
	@ args = 0, pretend = 0, frame = 0
	@ frame_needed = 0, uses_anonymous_args = 0
	@ link register save eliminated.
	.loc 1 43 4 view .LVU265
	.loc 1 43 7 is_stmt 0 view .LVU266
	ldrb	r2, [r0]	@ zero_extendqisi2
	.loc 1 43 25 view .LVU267
	sub	r3, r2, #97
	uxtb	r3, r3
	.loc 1 43 6 view .LVU268
	cmp	r3, #25
	bhi	.L104
	.loc 1 44 7 is_stmt 1 view .LVU269
	.loc 1 44 39 is_stmt 0 view .LVU270
	subs	r2, r2, #32
	.loc 1 44 18 view .LVU271
	strb	r2, [r0]
.L104:
	.loc 1 45 1 view .LVU272
	bx	lr
	.cfi_endproc
.LFE15:
	.size	convertCaps, .-convertCaps
	.section	.text.encrypt,"ax",%progbits
	.align	1
	.global	encrypt
	.syntax unified
	.thumb
	.thumb_func
	.type	encrypt, %function
encrypt:
.LVL105:
.LFB16:
	.loc 1 47 29 is_stmt 1 view -0
	.cfi_startproc
	@ args = 0, pretend = 0, frame = 0
	@ frame_needed = 0, uses_anonymous_args = 0
	@ link register save eliminated.
	.loc 1 48 4 view .LVU274
	.loc 1 50 4 view .LVU275
	.loc 1 50 33 is_stmt 0 view .LVU276
	ldr	r1, .L109
	ldrb	r2, [r1]	@ zero_extendqisi2
	ldr	r3, .L109+4
	ldrb	r3, [r3, r2]	@ zero_extendqisi2
	.loc 1 50 28 view .LVU277
	add	r0, r0, r3
.LVL106:
	.loc 1 50 40 view .LVU278
	ldr	r3, .L109+8
	smull	ip, r3, r3, r0
	asrs	r3, r3, #3
	mov	ip, #26
	mls	r3, ip, r3, r0
	.loc 1 50 46 view .LVU279
	uxtb	r0, r3
	.loc 1 50 14 view .LVU280
	adds	r0, r0, #65
	uxtb	r0, r0
.LVL107:
	.loc 1 51 4 is_stmt 1 view .LVU281
	adds	r3, r2, #1
	uxtb	r3, r3
	strb	r3, [r1]
	.loc 1 53 4 view .LVU282
	.loc 1 53 8 is_stmt 0 view .LVU283
	cmp	r3, #21
	beq	.L108
.L107:
	.loc 1 53 8 discriminator 4 view .LVU284
	ldr	r2, .L109
	strb	r3, [r2]
	.loc 1 55 4 is_stmt 1 discriminator 4 view .LVU285
	.loc 1 56 1 is_stmt 0 discriminator 4 view .LVU286
	bx	lr
.L108:
	.loc 1 53 8 view .LVU287
	movs	r3, #0
	b	.L107
.L110:
	.align	2
.L109:
	.word	pos.3
	.word	key
	.word	1321528399
	.cfi_endproc
.LFE16:
	.size	encrypt, .-encrypt
	.section	.text.decrypt,"ax",%progbits
	.align	1
	.global	decrypt
	.syntax unified
	.thumb
	.thumb_func
	.type	decrypt, %function
decrypt:
.LVL108:
.LFB17:
	.loc 1 58 29 is_stmt 1 view -0
	.cfi_startproc
	@ args = 0, pretend = 0, frame = 0
	@ frame_needed = 0, uses_anonymous_args = 0
	@ link register save eliminated.
	.loc 1 58 29 is_stmt 0 view .LVU289
	push	{r4}
.LCFI16:
	.cfi_def_cfa_offset 4
	.cfi_offset 4, -4
	.loc 1 59 4 is_stmt 1 view .LVU290
	.loc 1 61 4 view .LVU291
	.loc 1 61 33 is_stmt 0 view .LVU292
	ldr	r4, .L115
	ldrb	r2, [r4]	@ zero_extendqisi2
	ldr	r3, .L115+4
	ldrb	r3, [r3, r2]	@ zero_extendqisi2
	.loc 1 61 28 view .LVU293
	subs	r0, r0, r3
.LVL109:
	.loc 1 61 39 view .LVU294
	adds	r0, r0, #26
	.loc 1 61 45 view .LVU295
	ldr	r1, .L115+8
	smull	r3, r1, r1, r0
	asrs	r3, r0, #31
	rsb	r3, r3, r1, asr #3
	movs	r1, #26
	mls	r3, r1, r3, r0
	.loc 1 61 51 view .LVU296
	uxtb	r0, r3
	.loc 1 61 14 view .LVU297
	adds	r0, r0, #65
	uxtb	r0, r0
.LVL110:
	.loc 1 62 4 is_stmt 1 view .LVU298
	adds	r3, r2, #1
	uxtb	r3, r3
	strb	r3, [r4]
	.loc 1 64 4 view .LVU299
	.loc 1 64 8 is_stmt 0 view .LVU300
	cmp	r3, #21
	beq	.L114
.L112:
	.loc 1 64 8 discriminator 4 view .LVU301
	ldr	r2, .L115
	strb	r3, [r2]
	.loc 1 66 4 is_stmt 1 discriminator 4 view .LVU302
	.loc 1 67 1 is_stmt 0 discriminator 4 view .LVU303
	ldr	r4, [sp], #4
.LCFI17:
	.cfi_remember_state
	.cfi_restore 4
	.cfi_def_cfa_offset 0
	bx	lr
.L114:
.LCFI18:
	.cfi_restore_state
	.loc 1 64 8 view .LVU304
	movs	r3, #0
	b	.L112
.L116:
	.align	2
.L115:
	.word	pos.2
	.word	key
	.word	1321528399
	.cfi_endproc
.LFE17:
	.size	decrypt, .-decrypt
	.section	.text.main,"ax",%progbits
	.align	1
	.global	main
	.syntax unified
	.thumb
	.thumb_func
	.type	main, %function
main:
.LFB21:
	.loc 1 128 16 is_stmt 1 view -0
	.cfi_startproc
	@ Volatile: function does not return.
	@ args = 0, pretend = 0, frame = 8
	@ frame_needed = 0, uses_anonymous_args = 0
	push	{lr}
.LCFI19:
	.cfi_def_cfa_offset 4
	.cfi_offset 14, -4
	sub	sp, sp, #12
.LCFI20:
	.cfi_def_cfa_offset 16
	.loc 1 130 4 view .LVU306
	bl	clock_enable
.LVL111:
	.loc 1 131 4 view .LVU307
	bl	usart_setup
.LVL112:
	.loc 1 132 4 view .LVU308
	bl	timer_setup
.LVL113:
	.loc 1 134 4 view .LVU309
	mov	r0, #2432
	bl	rcc_periph_clock_enable
.LVL114:
	.loc 1 135 4 view .LVU310
	movw	r0, #2434
	bl	rcc_periph_clock_enable
.LVL115:
	.loc 1 136 4 view .LVU311
	movs	r3, #32
	movs	r2, #1
	mov	r1, r2
	mov	r0, #1207959552
	bl	gpio_mode_setup
.LVL116:
	.loc 1 137 4 view .LVU312
	mov	r3, #8192
	movs	r2, #1
	movs	r1, #0
	ldr	r0, .L132
	bl	gpio_mode_setup
.LVL117:
	.loc 1 140 4 view .LVU313
	.loc 1 141 4 view .LVU314
	.loc 1 142 4 view .LVU315
	mov	r2, #1024
	ldr	r1, .L132+4
	ldr	r0, .L132+8
	bl	circbuffer_init
.LVL118:
	.loc 1 144 4 view .LVU316
	.loc 1 144 9 is_stmt 0 view .LVU317
	movs	r3, #0
	strb	r3, [sp, #7]
	b	.L122
.L130:
	.loc 1 150 10 is_stmt 1 view .LVU318
	.loc 1 150 42 is_stmt 0 view .LVU319
	ldr	r0, .L132+12
	bl	usart_recv_blocking
.LVL119:
	.loc 1 150 10 view .LVU320
	uxtb	r1, r0
	ldr	r0, .L132+8
	bl	circbuffer_queue
.LVL120:
	b	.L118
.L120:
	.loc 1 160 15 is_stmt 1 view .LVU321
	.loc 1 160 18 is_stmt 0 view .LVU322
	mov	r1, #8192
	ldr	r0, .L132
	bl	gpio_get
.LVL121:
	.loc 1 160 17 view .LVU323
	cbnz	r0, .L127
.L121:
	.loc 1 164 10 is_stmt 1 view .LVU324
	.loc 1 164 13 is_stmt 0 view .LVU325
	movs	r1, #128
	ldr	r0, .L132+12
	bl	usart_get_flag
.LVL122:
	.loc 1 164 12 view .LVU326
	cbnz	r0, .L128
.L119:
	.loc 1 169 7 is_stmt 1 view .LVU327
	.loc 1 169 10 is_stmt 0 view .LVU328
	movs	r1, #2
	mov	r0, #1073741824
	bl	timer_get_flag
.LVL123:
	.loc 1 169 9 view .LVU329
	cbnz	r0, .L129
.L122:
	.loc 1 146 4 is_stmt 1 view .LVU330
	.loc 1 148 7 view .LVU331
	.loc 1 148 11 is_stmt 0 view .LVU332
	movs	r1, #32
	ldr	r0, .L132+12
	bl	usart_get_flag
.LVL124:
	.loc 1 148 10 view .LVU333
	cmp	r0, #0
	bne	.L130
.L118:
	.loc 1 153 7 is_stmt 1 view .LVU334
	.loc 1 153 11 is_stmt 0 view .LVU335
	ldr	r0, .L132+8
	bl	bufferIsEmpty
.LVL125:
	.loc 1 153 9 view .LVU336
	cmp	r0, #0
	bne	.L119
	.loc 1 154 10 is_stmt 1 view .LVU337
	add	r1, sp, #7
	ldr	r0, .L132+8
	bl	circbuffer_dequeue
.LVL126:
	.loc 1 155 10 view .LVU338
	add	r0, sp, #7
	bl	convertCaps
.LVL127:
	.loc 1 157 10 view .LVU339
	.loc 1 157 14 is_stmt 0 view .LVU340
	mov	r1, #8192
	ldr	r0, .L132
	bl	gpio_get
.LVL128:
	.loc 1 157 12 view .LVU341
	cmp	r0, #0
	bne	.L120
	.loc 1 158 13 is_stmt 1 view .LVU342
	.loc 1 158 27 is_stmt 0 view .LVU343
	ldrb	r0, [sp, #7]	@ zero_extendqisi2
	bl	decrypt
.LVL129:
	.loc 1 158 25 view .LVU344
	strb	r0, [sp, #7]
	b	.L121
.L127:
	.loc 1 161 13 is_stmt 1 view .LVU345
	.loc 1 161 27 is_stmt 0 view .LVU346
	ldrb	r0, [sp, #7]	@ zero_extendqisi2
	bl	encrypt
.LVL130:
	.loc 1 161 25 view .LVU347
	strb	r0, [sp, #7]
	b	.L121
.L128:
	.loc 1 165 13 is_stmt 1 view .LVU348
	ldrb	r1, [sp, #7]	@ zero_extendqisi2
	ldr	r0, .L132+12
	bl	usart_send_blocking
.LVL131:
	b	.L119
.L129:
	.loc 1 170 10 view .LVU349
	movs	r1, #2
	mov	r0, #1073741824
	bl	timer_clear_flag
.LVL132:
	.loc 1 172 10 view .LVU350
	.loc 1 172 14 is_stmt 0 view .LVU351
	mov	r1, #8192
	ldr	r0, .L132
	bl	gpio_get
.LVL133:
	.loc 1 172 12 view .LVU352
	cbz	r0, .L131
.L123:
	.loc 1 175 10 is_stmt 1 view .LVU353
	.loc 1 175 13 is_stmt 0 view .LVU354
	mov	r1, #8192
	ldr	r0, .L132
	bl	gpio_get
.LVL134:
	.loc 1 175 12 view .LVU355
	cbz	r0, .L124
	.loc 1 177 13 is_stmt 1 view .LVU356
	movw	r1, #10000
	mov	r0, #1073741824
	bl	timer_set_period
.LVL135:
.L124:
	.loc 1 180 10 view .LVU357
	movs	r1, #32
	mov	r0, #1207959552
	bl	gpio_toggle
.LVL136:
	b	.L122
.L131:
	.loc 1 173 13 view .LVU358
	movw	r1, #2500
	mov	r0, #1073741824
	bl	timer_set_period
.LVL137:
	b	.L123
.L133:
	.align	2
.L132:
	.word	1207961600
	.word	buffer.0
	.word	myCircBuffer.1
	.word	1073759232
	.cfi_endproc
.LFE21:
	.size	main, .-main
	.section	.bss.buffer.0,"aw",%nobits
	.align	2
	.type	buffer.0, %object
	.size	buffer.0, 1024
buffer.0:
	.space	1024
	.section	.bss.myCircBuffer.1,"aw",%nobits
	.align	2
	.type	myCircBuffer.1, %object
	.size	myCircBuffer.1, 8
myCircBuffer.1:
	.space	8
	.section	.bss.pos.2,"aw",%nobits
	.type	pos.2, %object
	.size	pos.2, 1
pos.2:
	.space	1
	.section	.bss.pos.3,"aw",%nobits
	.type	pos.3, %object
	.size	pos.3, 1
pos.3:
	.space	1
	.section	.rodata.__func__.4,"a"
	.align	2
	.type	__func__.4, %object
	.size	__func__.4, 16
__func__.4:
	.ascii	"circbuff_recent\000"
	.section	.rodata.__func__.5,"a"
	.align	2
	.type	__func__.5, %object
	.size	__func__.5, 12
__func__.5:
	.ascii	"backPointer\000"
	.section	.rodata.__func__.6,"a"
	.align	2
	.type	__func__.6, %object
	.size	__func__.6, 19
__func__.6:
	.ascii	"circbuffer_dequeue\000"
	.section	.rodata.__func__.7,"a"
	.align	2
	.type	__func__.7, %object
	.size	__func__.7, 15
__func__.7:
	.ascii	"advancePointer\000"
	.section	.rodata.__func__.8,"a"
	.align	2
	.type	__func__.8, %object
	.size	__func__.8, 17
__func__.8:
	.ascii	"circbuffer_queue\000"
	.section	.rodata.__func__.9,"a"
	.align	2
	.type	__func__.9, %object
	.size	__func__.9, 17
__func__.9:
	.ascii	"circbuff_entries\000"
	.section	.rodata.__func__.10,"a"
	.align	2
	.type	__func__.10, %object
	.size	__func__.10, 13
__func__.10:
	.ascii	"bufferIsFull\000"
	.section	.rodata.__func__.11,"a"
	.align	2
	.type	__func__.11, %object
	.size	__func__.11, 16
__func__.11:
	.ascii	"circbuffer_init\000"
	.section	.rodata.__func__.12,"a"
	.align	2
	.type	__func__.12, %object
	.size	__func__.12, 14
__func__.12:
	.ascii	"bufferIsEmpty\000"
	.section	.rodata.__func__.13,"a"
	.align	2
	.type	__func__.13, %object
	.size	__func__.13, 17
__func__.13:
	.ascii	"circbuffer_reset\000"
	.global	max
	.section	.rodata.max,"a"
	.align	2
	.type	max, %object
	.size	max, 4
max:
	.word	1024
	.global	key
	.section	.rodata.key,"a"
	.align	2
	.type	key, %object
	.size	key, 21
key:
	.ascii	"BOLDFEARLESSCONFIDENT"
	.text
.Letext0:
	.file 4 "/usr/arm-none-eabi/include/machine/_default_types.h"
	.file 5 "/usr/arm-none-eabi/include/sys/_stdint.h"
	.file 6 "/home/tatew/libopencm3/include/libopencm3/stm32/l4/rcc.h"
	.file 7 "/home/tatew/libopencm3/include/libopencm3/stm32/common/timer_common_all.h"
	.file 8 "/home/tatew/libopencm3/include/libopencm3/stm32/common/rcc_common_all.h"
	.file 9 "/home/tatew/libopencm3/include/libopencm3/stm32/common/usart_common_all.h"
	.file 10 "/home/tatew/libopencm3/include/libopencm3/stm32/common/gpio_common_f234.h"
	.file 11 "/home/tatew/libopencm3/include/libopencm3/stm32/common/gpio_common_all.h"
	.file 12 "/usr/arm-none-eabi/include/assert.h"
	.file 13 "/usr/arm-none-eabi/include/sys/errno.h"